
build/kernel8.elf:     file format elf64-littleaarch64


Disassembly of section .text.boot:

0000000000000000 <_start>:
   0:	d53800a0 	mrs	x0, mpidr_el1
   4:	92401c00 	and	x0, x0, #0xff
   8:	b4000040 	cbz	x0, 10 <master>
   c:	14000008 	b	2c <proc_hang>

0000000000000010 <master>:
  10:	10009980 	adr	x0, 1340 <stdout_putf>
  14:	100099e1 	adr	x1, 1350 <bss_end>
  18:	cb000021 	sub	x1, x1, x0
  1c:	940003e8 	bl	fbc <memzero>
  20:	b27303ff 	mov	sp, #0x2000                	// #8192
  24:	94000069 	bl	1c8 <kernel_main>
  28:	14000001 	b	2c <proc_hang>

000000000000002c <proc_hang>:
  2c:	d503205f 	wfe
  30:	17ffffff 	b	2c <proc_hang>

Disassembly of section .text:

0000000000000034 <gpio_pin_set_func>:
  34:	d10083ff 	sub	sp, sp, #0x20
  38:	39003fe0 	strb	w0, [sp, #15]
  3c:	b9000be1 	str	w1, [sp, #8]
  40:	39403fe1 	ldrb	w1, [sp, #15]
  44:	2a0103e0 	mov	w0, w1
  48:	531f7800 	lsl	w0, w0, #1
  4c:	0b010000 	add	w0, w0, w1
  50:	528003c1 	mov	w1, #0x1e                  	// #30
  54:	1ac10c02 	sdiv	w2, w0, w1
  58:	528003c1 	mov	w1, #0x1e                  	// #30
  5c:	1b017c41 	mul	w1, w2, w1
  60:	4b010000 	sub	w0, w0, w1
  64:	39007fe0 	strb	w0, [sp, #31]
  68:	39403fe1 	ldrb	w1, [sp, #15]
  6c:	529999a0 	mov	w0, #0xcccd                	// #52429
  70:	72b99980 	movk	w0, #0xcccc, lsl #16
  74:	9ba07c20 	umull	x0, w1, w0
  78:	d360fc00 	lsr	x0, x0, #32
  7c:	53037c00 	lsr	w0, w0, #3
  80:	39007be0 	strb	w0, [sp, #30]
  84:	d2bfc400 	mov	x0, #0xfe200000            	// #4263510016
  88:	39407be1 	ldrb	w1, [sp, #30]
  8c:	93407c21 	sxtw	x1, w1
  90:	b8617800 	ldr	w0, [x0, x1, lsl #2]
  94:	b9001be0 	str	w0, [sp, #24]
  98:	39407fe0 	ldrb	w0, [sp, #31]
  9c:	528000e1 	mov	w1, #0x7                   	// #7
  a0:	1ac02020 	lsl	w0, w1, w0
  a4:	2a2003e0 	mvn	w0, w0
  a8:	2a0003e1 	mov	w1, w0
  ac:	b9401be0 	ldr	w0, [sp, #24]
  b0:	0a010000 	and	w0, w0, w1
  b4:	b9001be0 	str	w0, [sp, #24]
  b8:	39407fe0 	ldrb	w0, [sp, #31]
  bc:	b9400be1 	ldr	w1, [sp, #8]
  c0:	1ac02020 	lsl	w0, w1, w0
  c4:	b9401be1 	ldr	w1, [sp, #24]
  c8:	2a000020 	orr	w0, w1, w0
  cc:	b9001be0 	str	w0, [sp, #24]
  d0:	d2bfc400 	mov	x0, #0xfe200000            	// #4263510016
  d4:	39407be1 	ldrb	w1, [sp, #30]
  d8:	93407c21 	sxtw	x1, w1
  dc:	b9401be2 	ldr	w2, [sp, #24]
  e0:	b8217802 	str	w2, [x0, x1, lsl #2]
  e4:	d503201f 	nop
  e8:	910083ff 	add	sp, sp, #0x20
  ec:	d65f03c0 	ret

00000000000000f0 <gpio_pin_enable>:
  f0:	a9be7bfd 	stp	x29, x30, [sp, #-32]!
  f4:	910003fd 	mov	x29, sp
  f8:	39007fe0 	strb	w0, [sp, #31]
  fc:	d2bfc400 	mov	x0, #0xfe200000            	// #4263510016
 100:	b900941f 	str	wzr, [x0, #148]
 104:	d28012c0 	mov	x0, #0x96                  	// #150
 108:	940003b1 	bl	fcc <delay>
 10c:	39407fe0 	ldrb	w0, [sp, #31]
 110:	12001000 	and	w0, w0, #0x1f
 114:	52800021 	mov	w1, #0x1                   	// #1
 118:	1ac02022 	lsl	w2, w1, w0
 11c:	d2bfc401 	mov	x1, #0xfe200000            	// #4263510016
 120:	39407fe0 	ldrb	w0, [sp, #31]
 124:	53057c00 	lsr	w0, w0, #5
 128:	12001c00 	and	w0, w0, #0xff
 12c:	93407c00 	sxtw	x0, w0
 130:	91009000 	add	x0, x0, #0x24
 134:	d37ef400 	lsl	x0, x0, #2
 138:	8b000020 	add	x0, x1, x0
 13c:	b9000802 	str	w2, [x0, #8]
 140:	d28012c0 	mov	x0, #0x96                  	// #150
 144:	940003a2 	bl	fcc <delay>
 148:	d2bfc400 	mov	x0, #0xfe200000            	// #4263510016
 14c:	b900941f 	str	wzr, [x0, #148]
 150:	d2bfc401 	mov	x1, #0xfe200000            	// #4263510016
 154:	39407fe0 	ldrb	w0, [sp, #31]
 158:	53057c00 	lsr	w0, w0, #5
 15c:	12001c00 	and	w0, w0, #0xff
 160:	93407c00 	sxtw	x0, w0
 164:	91009000 	add	x0, x0, #0x24
 168:	d37ef400 	lsl	x0, x0, #2
 16c:	8b000020 	add	x0, x1, x0
 170:	b900081f 	str	wzr, [x0, #8]
 174:	d503201f 	nop
 178:	a8c27bfd 	ldp	x29, x30, [sp], #32
 17c:	d65f03c0 	ret

0000000000000180 <putc>:
 180:	a9bd7bfd 	stp	x29, x30, [sp, #-48]!
 184:	910003fd 	mov	x29, sp
 188:	f9000fe0 	str	x0, [sp, #24]
 18c:	39005fe1 	strb	w1, [sp, #23]
 190:	f9400fe0 	ldr	x0, [sp, #24]
 194:	f90017e0 	str	x0, [sp, #40]
 198:	39405fe0 	ldrb	w0, [sp, #23]
 19c:	7100281f 	cmp	w0, #0xa
 1a0:	54000081 	b.ne	1b0 <putc+0x30>  // b.any
 1a4:	528001a1 	mov	w1, #0xd                   	// #13
 1a8:	f94017e0 	ldr	x0, [sp, #40]
 1ac:	940000f6 	bl	584 <pl011_send>
 1b0:	39405fe1 	ldrb	w1, [sp, #23]
 1b4:	f94017e0 	ldr	x0, [sp, #40]
 1b8:	940000f3 	bl	584 <pl011_send>
 1bc:	d503201f 	nop
 1c0:	a8c37bfd 	ldp	x29, x30, [sp], #48
 1c4:	d65f03c0 	ret

00000000000001c8 <kernel_main>:
 1c8:	a9be7bfd 	stp	x29, x30, [sp, #-32]!
 1cc:	910003fd 	mov	x29, sp
 1d0:	b0000000 	adrp	x0, 1000 <get_el+0x18>
 1d4:	910c8000 	add	x0, x0, #0x320
 1d8:	f9000fe0 	str	x0, [sp, #24]
 1dc:	52984001 	mov	w1, #0xc200                	// #49664
 1e0:	72a00021 	movk	w1, #0x1, lsl #16
 1e4:	f9400fe0 	ldr	x0, [sp, #24]
 1e8:	940000b6 	bl	4c0 <pl011_init>
 1ec:	90000000 	adrp	x0, 0 <_start>
 1f0:	91060001 	add	x1, x0, #0x180
 1f4:	f9400fe0 	ldr	x0, [sp, #24]
 1f8:	94000307 	bl	e14 <init_printf>
 1fc:	b0000000 	adrp	x0, 1000 <get_el+0x18>
 200:	910c8000 	add	x0, x0, #0x320
 204:	f9400000 	ldr	x0, [x0]
 208:	aa0003e1 	mov	x1, x0
 20c:	90000000 	adrp	x0, 0 <_start>
 210:	913fe000 	add	x0, x0, #0xff8
 214:	9400030e 	bl	e4c <tfp_printf>
 218:	d2820001 	mov	x1, #0x1000                	// #4096
 21c:	f2bfc401 	movk	x1, #0xfe20, lsl #16
 220:	b0000000 	adrp	x0, 1000 <get_el+0x18>
 224:	91004000 	add	x0, x0, #0x10
 228:	94000309 	bl	e4c <tfp_printf>
 22c:	b0000000 	adrp	x0, 1000 <get_el+0x18>
 230:	91008000 	add	x0, x0, #0x20
 234:	94000306 	bl	e4c <tfp_printf>
 238:	b0000000 	adrp	x0, 1000 <get_el+0x18>
 23c:	91010000 	add	x0, x0, #0x40
 240:	94000303 	bl	e4c <tfp_printf>
 244:	94000369 	bl	fe8 <get_el>
 248:	2a0003e1 	mov	w1, w0
 24c:	b0000000 	adrp	x0, 1000 <get_el+0x18>
 250:	91014000 	add	x0, x0, #0x50
 254:	940002fe 	bl	e4c <tfp_printf>
 258:	f9400fe0 	ldr	x0, [sp, #24]
 25c:	940000db 	bl	5c8 <pl011_recv>
 260:	12001c00 	and	w0, w0, #0xff
 264:	2a0003e1 	mov	w1, w0
 268:	f9400fe0 	ldr	x0, [sp, #24]
 26c:	940000c6 	bl	584 <pl011_send>
 270:	17fffffa 	b	258 <kernel_main+0x90>

0000000000000274 <calc_br_reg>:
 274:	d10043ff 	sub	sp, sp, #0x10
 278:	b9000fe0 	str	w0, [sp, #12]
 27c:	b9000be1 	str	w1, [sp, #8]
 280:	b9400be0 	ldr	w0, [sp, #8]
 284:	531d7000 	lsl	w0, w0, #3
 288:	b9400fe1 	ldr	w1, [sp, #12]
 28c:	1ac00820 	udiv	w0, w1, w0
 290:	51000400 	sub	w0, w0, #0x1
 294:	910043ff 	add	sp, sp, #0x10
 298:	d65f03c0 	ret

000000000000029c <uart_init>:
 29c:	a9be7bfd 	stp	x29, x30, [sp, #-32]!
 2a0:	910003fd 	mov	x29, sp
 2a4:	f9000bf3 	str	x19, [sp, #16]
 2a8:	52800041 	mov	w1, #0x2                   	// #2
 2ac:	528001c0 	mov	w0, #0xe                   	// #14
 2b0:	97ffff61 	bl	34 <gpio_pin_set_func>
 2b4:	52800041 	mov	w1, #0x2                   	// #2
 2b8:	528001e0 	mov	w0, #0xf                   	// #15
 2bc:	97ffff5e 	bl	34 <gpio_pin_set_func>
 2c0:	528001c0 	mov	w0, #0xe                   	// #14
 2c4:	97ffff8b 	bl	f0 <gpio_pin_enable>
 2c8:	528001e0 	mov	w0, #0xf                   	// #15
 2cc:	97ffff89 	bl	f0 <gpio_pin_enable>
 2d0:	d28a0000 	mov	x0, #0x5000                	// #20480
 2d4:	f2bfc420 	movk	x0, #0xfe21, lsl #16
 2d8:	52800021 	mov	w1, #0x1                   	// #1
 2dc:	b9000401 	str	w1, [x0, #4]
 2e0:	d28a0000 	mov	x0, #0x5000                	// #20480
 2e4:	f2bfc420 	movk	x0, #0xfe21, lsl #16
 2e8:	b900601f 	str	wzr, [x0, #96]
 2ec:	d28a0000 	mov	x0, #0x5000                	// #20480
 2f0:	f2bfc420 	movk	x0, #0xfe21, lsl #16
 2f4:	b900441f 	str	wzr, [x0, #68]
 2f8:	d28a0000 	mov	x0, #0x5000                	// #20480
 2fc:	f2bfc420 	movk	x0, #0xfe21, lsl #16
 300:	52800061 	mov	w1, #0x3                   	// #3
 304:	b9004c01 	str	w1, [x0, #76]
 308:	d28a0000 	mov	x0, #0x5000                	// #20480
 30c:	f2bfc420 	movk	x0, #0xfe21, lsl #16
 310:	b900501f 	str	wzr, [x0, #80]
 314:	d28a0013 	mov	x19, #0x5000                	// #20480
 318:	f2bfc433 	movk	x19, #0xfe21, lsl #16
 31c:	52984001 	mov	w1, #0xc200                	// #49664
 320:	72a00021 	movk	w1, #0x1, lsl #16
 324:	528ca000 	mov	w0, #0x6500                	// #25856
 328:	72a3b9a0 	movk	w0, #0x1dcd, lsl #16
 32c:	97ffffd2 	bl	274 <calc_br_reg>
 330:	b9006a60 	str	w0, [x19, #104]
 334:	d28a0000 	mov	x0, #0x5000                	// #20480
 338:	f2bfc420 	movk	x0, #0xfe21, lsl #16
 33c:	52800061 	mov	w1, #0x3                   	// #3
 340:	b9006001 	str	w1, [x0, #96]
 344:	528001a0 	mov	w0, #0xd                   	// #13
 348:	94000009 	bl	36c <uart_send>
 34c:	52800140 	mov	w0, #0xa                   	// #10
 350:	94000007 	bl	36c <uart_send>
 354:	52800140 	mov	w0, #0xa                   	// #10
 358:	94000005 	bl	36c <uart_send>
 35c:	d503201f 	nop
 360:	f9400bf3 	ldr	x19, [sp, #16]
 364:	a8c27bfd 	ldp	x29, x30, [sp], #32
 368:	d65f03c0 	ret

000000000000036c <uart_send>:
 36c:	d10043ff 	sub	sp, sp, #0x10
 370:	39003fe0 	strb	w0, [sp, #15]
 374:	d503201f 	nop
 378:	d28a0000 	mov	x0, #0x5000                	// #20480
 37c:	f2bfc420 	movk	x0, #0xfe21, lsl #16
 380:	b9405400 	ldr	w0, [x0, #84]
 384:	121b0000 	and	w0, w0, #0x20
 388:	7100001f 	cmp	w0, #0x0
 38c:	54ffff60 	b.eq	378 <uart_send+0xc>  // b.none
 390:	d28a0000 	mov	x0, #0x5000                	// #20480
 394:	f2bfc420 	movk	x0, #0xfe21, lsl #16
 398:	39403fe1 	ldrb	w1, [sp, #15]
 39c:	b9004001 	str	w1, [x0, #64]
 3a0:	d503201f 	nop
 3a4:	910043ff 	add	sp, sp, #0x10
 3a8:	d65f03c0 	ret

00000000000003ac <uart_recv>:
 3ac:	d503201f 	nop
 3b0:	d28a0000 	mov	x0, #0x5000                	// #20480
 3b4:	f2bfc420 	movk	x0, #0xfe21, lsl #16
 3b8:	b9405400 	ldr	w0, [x0, #84]
 3bc:	12000000 	and	w0, w0, #0x1
 3c0:	7100001f 	cmp	w0, #0x0
 3c4:	54ffff60 	b.eq	3b0 <uart_recv+0x4>  // b.none
 3c8:	d28a0000 	mov	x0, #0x5000                	// #20480
 3cc:	f2bfc420 	movk	x0, #0xfe21, lsl #16
 3d0:	b9404000 	ldr	w0, [x0, #64]
 3d4:	12001c00 	and	w0, w0, #0xff
 3d8:	d65f03c0 	ret

00000000000003dc <uart_send_string>:
 3dc:	a9be7bfd 	stp	x29, x30, [sp, #-32]!
 3e0:	910003fd 	mov	x29, sp
 3e4:	f9000fe0 	str	x0, [sp, #24]
 3e8:	1400000d 	b	41c <uart_send_string+0x40>
 3ec:	f9400fe0 	ldr	x0, [sp, #24]
 3f0:	39400000 	ldrb	w0, [x0]
 3f4:	7100281f 	cmp	w0, #0xa
 3f8:	54000061 	b.ne	404 <uart_send_string+0x28>  // b.any
 3fc:	528001a0 	mov	w0, #0xd                   	// #13
 400:	97ffffdb 	bl	36c <uart_send>
 404:	f9400fe0 	ldr	x0, [sp, #24]
 408:	39400000 	ldrb	w0, [x0]
 40c:	97ffffd8 	bl	36c <uart_send>
 410:	f9400fe0 	ldr	x0, [sp, #24]
 414:	91000400 	add	x0, x0, #0x1
 418:	f9000fe0 	str	x0, [sp, #24]
 41c:	f9400fe0 	ldr	x0, [sp, #24]
 420:	39400000 	ldrb	w0, [x0]
 424:	7100001f 	cmp	w0, #0x0
 428:	54fffe21 	b.ne	3ec <uart_send_string+0x10>  // b.any
 42c:	d503201f 	nop
 430:	d503201f 	nop
 434:	a8c27bfd 	ldp	x29, x30, [sp], #32
 438:	d65f03c0 	ret

000000000000043c <pl011_set_br>:
 43c:	d10083ff 	sub	sp, sp, #0x20
 440:	f90007e0 	str	x0, [sp, #8]
 444:	b90007e1 	str	w1, [sp, #4]
 448:	b94007e0 	ldr	w0, [sp, #4]
 44c:	7100001f 	cmp	w0, #0x0
 450:	54000320 	b.eq	4b4 <pl011_set_br+0x78>  // b.none
 454:	f94007e0 	ldr	x0, [sp, #8]
 458:	f9400000 	ldr	x0, [x0]
 45c:	b900301f 	str	wzr, [x0, #48]
 460:	b94007e0 	ldr	w0, [sp, #4]
 464:	53017c00 	lsr	w0, w0, #1
 468:	2a0003e1 	mov	w1, w0
 46c:	d2960000 	mov	x0, #0xb000                	// #45056
 470:	f2a16e20 	movk	x0, #0xb71, lsl #16
 474:	8b000021 	add	x1, x1, x0
 478:	b94007e0 	ldr	w0, [sp, #4]
 47c:	9ac00820 	udiv	x0, x1, x0
 480:	f9000fe0 	str	x0, [sp, #24]
 484:	f9400fe0 	ldr	x0, [sp, #24]
 488:	d346fc01 	lsr	x1, x0, #6
 48c:	f94007e0 	ldr	x0, [sp, #8]
 490:	f9400000 	ldr	x0, [x0]
 494:	b9002401 	str	w1, [x0, #36]
 498:	f9400fe0 	ldr	x0, [sp, #24]
 49c:	2a0003e1 	mov	w1, w0
 4a0:	f94007e0 	ldr	x0, [sp, #8]
 4a4:	f9400000 	ldr	x0, [x0]
 4a8:	12001421 	and	w1, w1, #0x3f
 4ac:	b9002801 	str	w1, [x0, #40]
 4b0:	14000002 	b	4b8 <pl011_set_br+0x7c>
 4b4:	d503201f 	nop
 4b8:	910083ff 	add	sp, sp, #0x20
 4bc:	d65f03c0 	ret

00000000000004c0 <pl011_init>:
 4c0:	a9be7bfd 	stp	x29, x30, [sp, #-32]!
 4c4:	910003fd 	mov	x29, sp
 4c8:	f9000fe0 	str	x0, [sp, #24]
 4cc:	b90017e1 	str	w1, [sp, #20]
 4d0:	f9400fe0 	ldr	x0, [sp, #24]
 4d4:	39402002 	ldrb	w2, [x0, #8]
 4d8:	f9400fe0 	ldr	x0, [sp, #24]
 4dc:	b9400c00 	ldr	w0, [x0, #12]
 4e0:	2a0003e1 	mov	w1, w0
 4e4:	2a0203e0 	mov	w0, w2
 4e8:	97fffed3 	bl	34 <gpio_pin_set_func>
 4ec:	f9400fe0 	ldr	x0, [sp, #24]
 4f0:	39402402 	ldrb	w2, [x0, #9]
 4f4:	f9400fe0 	ldr	x0, [sp, #24]
 4f8:	b9400c00 	ldr	w0, [x0, #12]
 4fc:	2a0003e1 	mov	w1, w0
 500:	2a0203e0 	mov	w0, w2
 504:	97fffecc 	bl	34 <gpio_pin_set_func>
 508:	f9400fe0 	ldr	x0, [sp, #24]
 50c:	39402000 	ldrb	w0, [x0, #8]
 510:	97fffef8 	bl	f0 <gpio_pin_enable>
 514:	f9400fe0 	ldr	x0, [sp, #24]
 518:	39402400 	ldrb	w0, [x0, #9]
 51c:	97fffef5 	bl	f0 <gpio_pin_enable>
 520:	f9400fe0 	ldr	x0, [sp, #24]
 524:	f9400000 	ldr	x0, [x0]
 528:	f100001f 	cmp	x0, #0x0
 52c:	540000a1 	b.ne	540 <pl011_init+0x80>  // b.any
 530:	f9400fe0 	ldr	x0, [sp, #24]
 534:	d2820001 	mov	x1, #0x1000                	// #4096
 538:	f2bfc401 	movk	x1, #0xfe20, lsl #16
 53c:	f9000001 	str	x1, [x0]
 540:	b94017e1 	ldr	w1, [sp, #20]
 544:	f9400fe0 	ldr	x0, [sp, #24]
 548:	97ffffbd 	bl	43c <pl011_set_br>
 54c:	f9400fe0 	ldr	x0, [sp, #24]
 550:	f9400000 	ldr	x0, [x0]
 554:	b9402c01 	ldr	w1, [x0, #44]
 558:	f9400fe0 	ldr	x0, [sp, #24]
 55c:	f9400000 	ldr	x0, [x0]
 560:	321b0421 	orr	w1, w1, #0x60
 564:	b9002c01 	str	w1, [x0, #44]
 568:	f9400fe0 	ldr	x0, [sp, #24]
 56c:	f9400000 	ldr	x0, [x0]
 570:	52806021 	mov	w1, #0x301                 	// #769
 574:	b9003001 	str	w1, [x0, #48]
 578:	d503201f 	nop
 57c:	a8c27bfd 	ldp	x29, x30, [sp], #32
 580:	d65f03c0 	ret

0000000000000584 <pl011_send>:
 584:	d10043ff 	sub	sp, sp, #0x10
 588:	f90007e0 	str	x0, [sp, #8]
 58c:	39001fe1 	strb	w1, [sp, #7]
 590:	d503201f 	nop
 594:	f94007e0 	ldr	x0, [sp, #8]
 598:	f9400000 	ldr	x0, [x0]
 59c:	b9401800 	ldr	w0, [x0, #24]
 5a0:	121b0000 	and	w0, w0, #0x20
 5a4:	7100001f 	cmp	w0, #0x0
 5a8:	54ffff61 	b.ne	594 <pl011_send+0x10>  // b.any
 5ac:	f94007e0 	ldr	x0, [sp, #8]
 5b0:	f9400000 	ldr	x0, [x0]
 5b4:	39401fe1 	ldrb	w1, [sp, #7]
 5b8:	b9000001 	str	w1, [x0]
 5bc:	d503201f 	nop
 5c0:	910043ff 	add	sp, sp, #0x10
 5c4:	d65f03c0 	ret

00000000000005c8 <pl011_recv>:
 5c8:	d10043ff 	sub	sp, sp, #0x10
 5cc:	f90007e0 	str	x0, [sp, #8]
 5d0:	d503201f 	nop
 5d4:	f94007e0 	ldr	x0, [sp, #8]
 5d8:	f9400000 	ldr	x0, [x0]
 5dc:	b9401800 	ldr	w0, [x0, #24]
 5e0:	121c0000 	and	w0, w0, #0x10
 5e4:	7100001f 	cmp	w0, #0x0
 5e8:	54ffff61 	b.ne	5d4 <pl011_recv+0xc>  // b.any
 5ec:	f94007e0 	ldr	x0, [sp, #8]
 5f0:	f9400000 	ldr	x0, [x0]
 5f4:	b9400000 	ldr	w0, [x0]
 5f8:	12001c00 	and	w0, w0, #0xff
 5fc:	910043ff 	add	sp, sp, #0x10
 600:	d65f03c0 	ret

0000000000000604 <pl011_send_string>:
 604:	a9be7bfd 	stp	x29, x30, [sp, #-32]!
 608:	910003fd 	mov	x29, sp
 60c:	f9000fe0 	str	x0, [sp, #24]
 610:	f9000be1 	str	x1, [sp, #16]
 614:	14000010 	b	654 <pl011_send_string+0x50>
 618:	f9400be0 	ldr	x0, [sp, #16]
 61c:	39400000 	ldrb	w0, [x0]
 620:	7100281f 	cmp	w0, #0xa
 624:	54000081 	b.ne	634 <pl011_send_string+0x30>  // b.any
 628:	528001a1 	mov	w1, #0xd                   	// #13
 62c:	f9400fe0 	ldr	x0, [sp, #24]
 630:	97ffffd5 	bl	584 <pl011_send>
 634:	f9400be0 	ldr	x0, [sp, #16]
 638:	39400000 	ldrb	w0, [x0]
 63c:	2a0003e1 	mov	w1, w0
 640:	f9400fe0 	ldr	x0, [sp, #24]
 644:	97ffffd0 	bl	584 <pl011_send>
 648:	f9400be0 	ldr	x0, [sp, #16]
 64c:	91000400 	add	x0, x0, #0x1
 650:	f9000be0 	str	x0, [sp, #16]
 654:	f9400be0 	ldr	x0, [sp, #16]
 658:	39400000 	ldrb	w0, [x0]
 65c:	7100001f 	cmp	w0, #0x0
 660:	54fffdc1 	b.ne	618 <pl011_send_string+0x14>  // b.any
 664:	d503201f 	nop
 668:	d503201f 	nop
 66c:	a8c27bfd 	ldp	x29, x30, [sp], #32
 670:	d65f03c0 	ret

0000000000000674 <ui2a>:
 674:	d100c3ff 	sub	sp, sp, #0x30
 678:	b9001fe0 	str	w0, [sp, #28]
 67c:	b9001be1 	str	w1, [sp, #24]
 680:	b90017e2 	str	w2, [sp, #20]
 684:	f90007e3 	str	x3, [sp, #8]
 688:	b9002fff 	str	wzr, [sp, #44]
 68c:	52800020 	mov	w0, #0x1                   	// #1
 690:	b9002be0 	str	w0, [sp, #40]
 694:	14000005 	b	6a8 <ui2a+0x34>
 698:	b9402be1 	ldr	w1, [sp, #40]
 69c:	b9401be0 	ldr	w0, [sp, #24]
 6a0:	1b007c20 	mul	w0, w1, w0
 6a4:	b9002be0 	str	w0, [sp, #40]
 6a8:	b9401fe1 	ldr	w1, [sp, #28]
 6ac:	b9402be0 	ldr	w0, [sp, #40]
 6b0:	1ac00820 	udiv	w0, w1, w0
 6b4:	b9401be1 	ldr	w1, [sp, #24]
 6b8:	6b00003f 	cmp	w1, w0
 6bc:	54fffee9 	b.ls	698 <ui2a+0x24>  // b.plast
 6c0:	1400002f 	b	77c <ui2a+0x108>
 6c4:	b9401fe1 	ldr	w1, [sp, #28]
 6c8:	b9402be0 	ldr	w0, [sp, #40]
 6cc:	1ac00820 	udiv	w0, w1, w0
 6d0:	b90027e0 	str	w0, [sp, #36]
 6d4:	b9401fe0 	ldr	w0, [sp, #28]
 6d8:	b9402be1 	ldr	w1, [sp, #40]
 6dc:	1ac10802 	udiv	w2, w0, w1
 6e0:	b9402be1 	ldr	w1, [sp, #40]
 6e4:	1b017c41 	mul	w1, w2, w1
 6e8:	4b010000 	sub	w0, w0, w1
 6ec:	b9001fe0 	str	w0, [sp, #28]
 6f0:	b9402be1 	ldr	w1, [sp, #40]
 6f4:	b9401be0 	ldr	w0, [sp, #24]
 6f8:	1ac00820 	udiv	w0, w1, w0
 6fc:	b9002be0 	str	w0, [sp, #40]
 700:	b9402fe0 	ldr	w0, [sp, #44]
 704:	7100001f 	cmp	w0, #0x0
 708:	540000e1 	b.ne	724 <ui2a+0xb0>  // b.any
 70c:	b94027e0 	ldr	w0, [sp, #36]
 710:	7100001f 	cmp	w0, #0x0
 714:	5400008c 	b.gt	724 <ui2a+0xb0>
 718:	b9402be0 	ldr	w0, [sp, #40]
 71c:	7100001f 	cmp	w0, #0x0
 720:	540002e1 	b.ne	77c <ui2a+0x108>  // b.any
 724:	b94027e0 	ldr	w0, [sp, #36]
 728:	7100241f 	cmp	w0, #0x9
 72c:	5400010d 	b.le	74c <ui2a+0xd8>
 730:	b94017e0 	ldr	w0, [sp, #20]
 734:	7100001f 	cmp	w0, #0x0
 738:	54000060 	b.eq	744 <ui2a+0xd0>  // b.none
 73c:	528006e0 	mov	w0, #0x37                  	// #55
 740:	14000004 	b	750 <ui2a+0xdc>
 744:	52800ae0 	mov	w0, #0x57                  	// #87
 748:	14000002 	b	750 <ui2a+0xdc>
 74c:	52800600 	mov	w0, #0x30                  	// #48
 750:	b94027e1 	ldr	w1, [sp, #36]
 754:	12001c22 	and	w2, w1, #0xff
 758:	f94007e1 	ldr	x1, [sp, #8]
 75c:	91000423 	add	x3, x1, #0x1
 760:	f90007e3 	str	x3, [sp, #8]
 764:	0b020000 	add	w0, w0, w2
 768:	12001c00 	and	w0, w0, #0xff
 76c:	39000020 	strb	w0, [x1]
 770:	b9402fe0 	ldr	w0, [sp, #44]
 774:	11000400 	add	w0, w0, #0x1
 778:	b9002fe0 	str	w0, [sp, #44]
 77c:	b9402be0 	ldr	w0, [sp, #40]
 780:	7100001f 	cmp	w0, #0x0
 784:	54fffa01 	b.ne	6c4 <ui2a+0x50>  // b.any
 788:	f94007e0 	ldr	x0, [sp, #8]
 78c:	3900001f 	strb	wzr, [x0]
 790:	d503201f 	nop
 794:	9100c3ff 	add	sp, sp, #0x30
 798:	d65f03c0 	ret

000000000000079c <i2a>:
 79c:	a9be7bfd 	stp	x29, x30, [sp, #-32]!
 7a0:	910003fd 	mov	x29, sp
 7a4:	b9001fe0 	str	w0, [sp, #28]
 7a8:	f9000be1 	str	x1, [sp, #16]
 7ac:	b9401fe0 	ldr	w0, [sp, #28]
 7b0:	7100001f 	cmp	w0, #0x0
 7b4:	5400012a 	b.ge	7d8 <i2a+0x3c>  // b.tcont
 7b8:	b9401fe0 	ldr	w0, [sp, #28]
 7bc:	4b0003e0 	neg	w0, w0
 7c0:	b9001fe0 	str	w0, [sp, #28]
 7c4:	f9400be0 	ldr	x0, [sp, #16]
 7c8:	91000401 	add	x1, x0, #0x1
 7cc:	f9000be1 	str	x1, [sp, #16]
 7d0:	528005a1 	mov	w1, #0x2d                  	// #45
 7d4:	39000001 	strb	w1, [x0]
 7d8:	b9401fe0 	ldr	w0, [sp, #28]
 7dc:	f9400be3 	ldr	x3, [sp, #16]
 7e0:	52800002 	mov	w2, #0x0                   	// #0
 7e4:	52800141 	mov	w1, #0xa                   	// #10
 7e8:	97ffffa3 	bl	674 <ui2a>
 7ec:	d503201f 	nop
 7f0:	a8c27bfd 	ldp	x29, x30, [sp], #32
 7f4:	d65f03c0 	ret

00000000000007f8 <a2d>:
 7f8:	d10043ff 	sub	sp, sp, #0x10
 7fc:	39003fe0 	strb	w0, [sp, #15]
 800:	39403fe0 	ldrb	w0, [sp, #15]
 804:	7100bc1f 	cmp	w0, #0x2f
 808:	540000e9 	b.ls	824 <a2d+0x2c>  // b.plast
 80c:	39403fe0 	ldrb	w0, [sp, #15]
 810:	7100e41f 	cmp	w0, #0x39
 814:	54000088 	b.hi	824 <a2d+0x2c>  // b.pmore
 818:	39403fe0 	ldrb	w0, [sp, #15]
 81c:	5100c000 	sub	w0, w0, #0x30
 820:	14000014 	b	870 <a2d+0x78>
 824:	39403fe0 	ldrb	w0, [sp, #15]
 828:	7101801f 	cmp	w0, #0x60
 82c:	540000e9 	b.ls	848 <a2d+0x50>  // b.plast
 830:	39403fe0 	ldrb	w0, [sp, #15]
 834:	7101981f 	cmp	w0, #0x66
 838:	54000088 	b.hi	848 <a2d+0x50>  // b.pmore
 83c:	39403fe0 	ldrb	w0, [sp, #15]
 840:	51015c00 	sub	w0, w0, #0x57
 844:	1400000b 	b	870 <a2d+0x78>
 848:	39403fe0 	ldrb	w0, [sp, #15]
 84c:	7101001f 	cmp	w0, #0x40
 850:	540000e9 	b.ls	86c <a2d+0x74>  // b.plast
 854:	39403fe0 	ldrb	w0, [sp, #15]
 858:	7101181f 	cmp	w0, #0x46
 85c:	54000088 	b.hi	86c <a2d+0x74>  // b.pmore
 860:	39403fe0 	ldrb	w0, [sp, #15]
 864:	5100dc00 	sub	w0, w0, #0x37
 868:	14000002 	b	870 <a2d+0x78>
 86c:	12800000 	mov	w0, #0xffffffff            	// #-1
 870:	910043ff 	add	sp, sp, #0x10
 874:	d65f03c0 	ret

0000000000000878 <a2i>:
 878:	a9bc7bfd 	stp	x29, x30, [sp, #-64]!
 87c:	910003fd 	mov	x29, sp
 880:	3900bfe0 	strb	w0, [sp, #47]
 884:	f90013e1 	str	x1, [sp, #32]
 888:	b9002be2 	str	w2, [sp, #40]
 88c:	f9000fe3 	str	x3, [sp, #24]
 890:	f94013e0 	ldr	x0, [sp, #32]
 894:	f9400000 	ldr	x0, [x0]
 898:	f9001fe0 	str	x0, [sp, #56]
 89c:	b90037ff 	str	wzr, [sp, #52]
 8a0:	14000010 	b	8e0 <a2i+0x68>
 8a4:	b94033e1 	ldr	w1, [sp, #48]
 8a8:	b9402be0 	ldr	w0, [sp, #40]
 8ac:	6b00003f 	cmp	w1, w0
 8b0:	5400026c 	b.gt	8fc <a2i+0x84>
 8b4:	b94037e1 	ldr	w1, [sp, #52]
 8b8:	b9402be0 	ldr	w0, [sp, #40]
 8bc:	1b007c20 	mul	w0, w1, w0
 8c0:	b94033e1 	ldr	w1, [sp, #48]
 8c4:	0b000020 	add	w0, w1, w0
 8c8:	b90037e0 	str	w0, [sp, #52]
 8cc:	f9401fe0 	ldr	x0, [sp, #56]
 8d0:	91000401 	add	x1, x0, #0x1
 8d4:	f9001fe1 	str	x1, [sp, #56]
 8d8:	39400000 	ldrb	w0, [x0]
 8dc:	3900bfe0 	strb	w0, [sp, #47]
 8e0:	3940bfe0 	ldrb	w0, [sp, #47]
 8e4:	97ffffc5 	bl	7f8 <a2d>
 8e8:	b90033e0 	str	w0, [sp, #48]
 8ec:	b94033e0 	ldr	w0, [sp, #48]
 8f0:	7100001f 	cmp	w0, #0x0
 8f4:	54fffd8a 	b.ge	8a4 <a2i+0x2c>  // b.tcont
 8f8:	14000002 	b	900 <a2i+0x88>
 8fc:	d503201f 	nop
 900:	f94013e0 	ldr	x0, [sp, #32]
 904:	f9401fe1 	ldr	x1, [sp, #56]
 908:	f9000001 	str	x1, [x0]
 90c:	f9400fe0 	ldr	x0, [sp, #24]
 910:	b94037e1 	ldr	w1, [sp, #52]
 914:	b9000001 	str	w1, [x0]
 918:	3940bfe0 	ldrb	w0, [sp, #47]
 91c:	a8c47bfd 	ldp	x29, x30, [sp], #64
 920:	d65f03c0 	ret

0000000000000924 <putchw>:
 924:	a9bc7bfd 	stp	x29, x30, [sp, #-64]!
 928:	910003fd 	mov	x29, sp
 92c:	f90017e0 	str	x0, [sp, #40]
 930:	f90013e1 	str	x1, [sp, #32]
 934:	b9001fe2 	str	w2, [sp, #28]
 938:	39006fe3 	strb	w3, [sp, #27]
 93c:	f9000be4 	str	x4, [sp, #16]
 940:	39406fe0 	ldrb	w0, [sp, #27]
 944:	7100001f 	cmp	w0, #0x0
 948:	54000060 	b.eq	954 <putchw+0x30>  // b.none
 94c:	52800600 	mov	w0, #0x30                  	// #48
 950:	14000002 	b	958 <putchw+0x34>
 954:	52800400 	mov	w0, #0x20                  	// #32
 958:	3900dfe0 	strb	w0, [sp, #55]
 95c:	f9400be0 	ldr	x0, [sp, #16]
 960:	f9001fe0 	str	x0, [sp, #56]
 964:	14000004 	b	974 <putchw+0x50>
 968:	b9401fe0 	ldr	w0, [sp, #28]
 96c:	51000400 	sub	w0, w0, #0x1
 970:	b9001fe0 	str	w0, [sp, #28]
 974:	f9401fe0 	ldr	x0, [sp, #56]
 978:	91000401 	add	x1, x0, #0x1
 97c:	f9001fe1 	str	x1, [sp, #56]
 980:	39400000 	ldrb	w0, [x0]
 984:	7100001f 	cmp	w0, #0x0
 988:	54000120 	b.eq	9ac <putchw+0x88>  // b.none
 98c:	b9401fe0 	ldr	w0, [sp, #28]
 990:	7100001f 	cmp	w0, #0x0
 994:	54fffeac 	b.gt	968 <putchw+0x44>
 998:	14000005 	b	9ac <putchw+0x88>
 99c:	f94013e2 	ldr	x2, [sp, #32]
 9a0:	3940dfe1 	ldrb	w1, [sp, #55]
 9a4:	f94017e0 	ldr	x0, [sp, #40]
 9a8:	d63f0040 	blr	x2
 9ac:	b9401fe0 	ldr	w0, [sp, #28]
 9b0:	51000401 	sub	w1, w0, #0x1
 9b4:	b9001fe1 	str	w1, [sp, #28]
 9b8:	7100001f 	cmp	w0, #0x0
 9bc:	54ffff0c 	b.gt	99c <putchw+0x78>
 9c0:	14000005 	b	9d4 <putchw+0xb0>
 9c4:	f94013e2 	ldr	x2, [sp, #32]
 9c8:	3940dbe1 	ldrb	w1, [sp, #54]
 9cc:	f94017e0 	ldr	x0, [sp, #40]
 9d0:	d63f0040 	blr	x2
 9d4:	f9400be0 	ldr	x0, [sp, #16]
 9d8:	91000401 	add	x1, x0, #0x1
 9dc:	f9000be1 	str	x1, [sp, #16]
 9e0:	39400000 	ldrb	w0, [x0]
 9e4:	3900dbe0 	strb	w0, [sp, #54]
 9e8:	3940dbe0 	ldrb	w0, [sp, #54]
 9ec:	7100001f 	cmp	w0, #0x0
 9f0:	54fffea1 	b.ne	9c4 <putchw+0xa0>  // b.any
 9f4:	d503201f 	nop
 9f8:	d503201f 	nop
 9fc:	a8c47bfd 	ldp	x29, x30, [sp], #64
 a00:	d65f03c0 	ret

0000000000000a04 <tfp_format>:
 a04:	a9ba7bfd 	stp	x29, x30, [sp, #-96]!
 a08:	910003fd 	mov	x29, sp
 a0c:	f9000bf3 	str	x19, [sp, #16]
 a10:	f9001fe0 	str	x0, [sp, #56]
 a14:	f9001be1 	str	x1, [sp, #48]
 a18:	f90017e2 	str	x2, [sp, #40]
 a1c:	aa0303f3 	mov	x19, x3
 a20:	140000ef 	b	ddc <tfp_format+0x3d8>
 a24:	39417fe0 	ldrb	w0, [sp, #95]
 a28:	7100941f 	cmp	w0, #0x25
 a2c:	540000c0 	b.eq	a44 <tfp_format+0x40>  // b.none
 a30:	f9401be2 	ldr	x2, [sp, #48]
 a34:	39417fe1 	ldrb	w1, [sp, #95]
 a38:	f9401fe0 	ldr	x0, [sp, #56]
 a3c:	d63f0040 	blr	x2
 a40:	140000e7 	b	ddc <tfp_format+0x3d8>
 a44:	39017bff 	strb	wzr, [sp, #94]
 a48:	b9004fff 	str	wzr, [sp, #76]
 a4c:	f94017e0 	ldr	x0, [sp, #40]
 a50:	91000401 	add	x1, x0, #0x1
 a54:	f90017e1 	str	x1, [sp, #40]
 a58:	39400000 	ldrb	w0, [x0]
 a5c:	39017fe0 	strb	w0, [sp, #95]
 a60:	39417fe0 	ldrb	w0, [sp, #95]
 a64:	7100c01f 	cmp	w0, #0x30
 a68:	54000101 	b.ne	a88 <tfp_format+0x84>  // b.any
 a6c:	f94017e0 	ldr	x0, [sp, #40]
 a70:	91000401 	add	x1, x0, #0x1
 a74:	f90017e1 	str	x1, [sp, #40]
 a78:	39400000 	ldrb	w0, [x0]
 a7c:	39017fe0 	strb	w0, [sp, #95]
 a80:	52800020 	mov	w0, #0x1                   	// #1
 a84:	39017be0 	strb	w0, [sp, #94]
 a88:	39417fe0 	ldrb	w0, [sp, #95]
 a8c:	7100bc1f 	cmp	w0, #0x2f
 a90:	54000189 	b.ls	ac0 <tfp_format+0xbc>  // b.plast
 a94:	39417fe0 	ldrb	w0, [sp, #95]
 a98:	7100e41f 	cmp	w0, #0x39
 a9c:	54000128 	b.hi	ac0 <tfp_format+0xbc>  // b.pmore
 aa0:	910133e1 	add	x1, sp, #0x4c
 aa4:	9100a3e0 	add	x0, sp, #0x28
 aa8:	aa0103e3 	mov	x3, x1
 aac:	52800142 	mov	w2, #0xa                   	// #10
 ab0:	aa0003e1 	mov	x1, x0
 ab4:	39417fe0 	ldrb	w0, [sp, #95]
 ab8:	97ffff70 	bl	878 <a2i>
 abc:	39017fe0 	strb	w0, [sp, #95]
 ac0:	39417fe0 	ldrb	w0, [sp, #95]
 ac4:	7101e01f 	cmp	w0, #0x78
 ac8:	54000be0 	b.eq	c44 <tfp_format+0x240>  // b.none
 acc:	7101e01f 	cmp	w0, #0x78
 ad0:	5400184c 	b.gt	dd8 <tfp_format+0x3d4>
 ad4:	7101d41f 	cmp	w0, #0x75
 ad8:	54000300 	b.eq	b38 <tfp_format+0x134>  // b.none
 adc:	7101d41f 	cmp	w0, #0x75
 ae0:	540017cc 	b.gt	dd8 <tfp_format+0x3d4>
 ae4:	7101cc1f 	cmp	w0, #0x73
 ae8:	54001360 	b.eq	d54 <tfp_format+0x350>  // b.none
 aec:	7101cc1f 	cmp	w0, #0x73
 af0:	5400174c 	b.gt	dd8 <tfp_format+0x3d4>
 af4:	7101901f 	cmp	w0, #0x64
 af8:	54000660 	b.eq	bc4 <tfp_format+0x1c0>  // b.none
 afc:	7101901f 	cmp	w0, #0x64
 b00:	540016cc 	b.gt	dd8 <tfp_format+0x3d4>
 b04:	71018c1f 	cmp	w0, #0x63
 b08:	54000f00 	b.eq	ce8 <tfp_format+0x2e4>  // b.none
 b0c:	71018c1f 	cmp	w0, #0x63
 b10:	5400164c 	b.gt	dd8 <tfp_format+0x3d4>
 b14:	7101601f 	cmp	w0, #0x58
 b18:	54000960 	b.eq	c44 <tfp_format+0x240>  // b.none
 b1c:	7101601f 	cmp	w0, #0x58
 b20:	540015cc 	b.gt	dd8 <tfp_format+0x3d4>
 b24:	7100001f 	cmp	w0, #0x0
 b28:	540016c0 	b.eq	e00 <tfp_format+0x3fc>  // b.none
 b2c:	7100941f 	cmp	w0, #0x25
 b30:	540014c0 	b.eq	dc8 <tfp_format+0x3c4>  // b.none
 b34:	140000a9 	b	dd8 <tfp_format+0x3d4>
 b38:	b9401a61 	ldr	w1, [x19, #24]
 b3c:	f9400260 	ldr	x0, [x19]
 b40:	7100003f 	cmp	w1, #0x0
 b44:	540000ab 	b.lt	b58 <tfp_format+0x154>  // b.tstop
 b48:	91002c01 	add	x1, x0, #0xb
 b4c:	927df021 	and	x1, x1, #0xfffffffffffffff8
 b50:	f9000261 	str	x1, [x19]
 b54:	1400000d 	b	b88 <tfp_format+0x184>
 b58:	11002022 	add	w2, w1, #0x8
 b5c:	b9001a62 	str	w2, [x19, #24]
 b60:	b9401a62 	ldr	w2, [x19, #24]
 b64:	7100005f 	cmp	w2, #0x0
 b68:	540000ad 	b.le	b7c <tfp_format+0x178>
 b6c:	91002c01 	add	x1, x0, #0xb
 b70:	927df021 	and	x1, x1, #0xfffffffffffffff8
 b74:	f9000261 	str	x1, [x19]
 b78:	14000004 	b	b88 <tfp_format+0x184>
 b7c:	f9400662 	ldr	x2, [x19, #8]
 b80:	93407c20 	sxtw	x0, w1
 b84:	8b000040 	add	x0, x2, x0
 b88:	b9400000 	ldr	w0, [x0]
 b8c:	910143e1 	add	x1, sp, #0x50
 b90:	aa0103e3 	mov	x3, x1
 b94:	52800002 	mov	w2, #0x0                   	// #0
 b98:	52800141 	mov	w1, #0xa                   	// #10
 b9c:	97fffeb6 	bl	674 <ui2a>
 ba0:	b9404fe0 	ldr	w0, [sp, #76]
 ba4:	910143e1 	add	x1, sp, #0x50
 ba8:	aa0103e4 	mov	x4, x1
 bac:	39417be3 	ldrb	w3, [sp, #94]
 bb0:	2a0003e2 	mov	w2, w0
 bb4:	f9401be1 	ldr	x1, [sp, #48]
 bb8:	f9401fe0 	ldr	x0, [sp, #56]
 bbc:	97ffff5a 	bl	924 <putchw>
 bc0:	14000087 	b	ddc <tfp_format+0x3d8>
 bc4:	b9401a61 	ldr	w1, [x19, #24]
 bc8:	f9400260 	ldr	x0, [x19]
 bcc:	7100003f 	cmp	w1, #0x0
 bd0:	540000ab 	b.lt	be4 <tfp_format+0x1e0>  // b.tstop
 bd4:	91002c01 	add	x1, x0, #0xb
 bd8:	927df021 	and	x1, x1, #0xfffffffffffffff8
 bdc:	f9000261 	str	x1, [x19]
 be0:	1400000d 	b	c14 <tfp_format+0x210>
 be4:	11002022 	add	w2, w1, #0x8
 be8:	b9001a62 	str	w2, [x19, #24]
 bec:	b9401a62 	ldr	w2, [x19, #24]
 bf0:	7100005f 	cmp	w2, #0x0
 bf4:	540000ad 	b.le	c08 <tfp_format+0x204>
 bf8:	91002c01 	add	x1, x0, #0xb
 bfc:	927df021 	and	x1, x1, #0xfffffffffffffff8
 c00:	f9000261 	str	x1, [x19]
 c04:	14000004 	b	c14 <tfp_format+0x210>
 c08:	f9400662 	ldr	x2, [x19, #8]
 c0c:	93407c20 	sxtw	x0, w1
 c10:	8b000040 	add	x0, x2, x0
 c14:	b9400000 	ldr	w0, [x0]
 c18:	910143e1 	add	x1, sp, #0x50
 c1c:	97fffee0 	bl	79c <i2a>
 c20:	b9404fe0 	ldr	w0, [sp, #76]
 c24:	910143e1 	add	x1, sp, #0x50
 c28:	aa0103e4 	mov	x4, x1
 c2c:	39417be3 	ldrb	w3, [sp, #94]
 c30:	2a0003e2 	mov	w2, w0
 c34:	f9401be1 	ldr	x1, [sp, #48]
 c38:	f9401fe0 	ldr	x0, [sp, #56]
 c3c:	97ffff3a 	bl	924 <putchw>
 c40:	14000067 	b	ddc <tfp_format+0x3d8>
 c44:	b9401a61 	ldr	w1, [x19, #24]
 c48:	f9400260 	ldr	x0, [x19]
 c4c:	7100003f 	cmp	w1, #0x0
 c50:	540000ab 	b.lt	c64 <tfp_format+0x260>  // b.tstop
 c54:	91002c01 	add	x1, x0, #0xb
 c58:	927df021 	and	x1, x1, #0xfffffffffffffff8
 c5c:	f9000261 	str	x1, [x19]
 c60:	1400000d 	b	c94 <tfp_format+0x290>
 c64:	11002022 	add	w2, w1, #0x8
 c68:	b9001a62 	str	w2, [x19, #24]
 c6c:	b9401a62 	ldr	w2, [x19, #24]
 c70:	7100005f 	cmp	w2, #0x0
 c74:	540000ad 	b.le	c88 <tfp_format+0x284>
 c78:	91002c01 	add	x1, x0, #0xb
 c7c:	927df021 	and	x1, x1, #0xfffffffffffffff8
 c80:	f9000261 	str	x1, [x19]
 c84:	14000004 	b	c94 <tfp_format+0x290>
 c88:	f9400662 	ldr	x2, [x19, #8]
 c8c:	93407c20 	sxtw	x0, w1
 c90:	8b000040 	add	x0, x2, x0
 c94:	b9400004 	ldr	w4, [x0]
 c98:	39417fe0 	ldrb	w0, [sp, #95]
 c9c:	7101601f 	cmp	w0, #0x58
 ca0:	1a9f17e0 	cset	w0, eq	// eq = none
 ca4:	12001c00 	and	w0, w0, #0xff
 ca8:	2a0003e1 	mov	w1, w0
 cac:	910143e0 	add	x0, sp, #0x50
 cb0:	aa0003e3 	mov	x3, x0
 cb4:	2a0103e2 	mov	w2, w1
 cb8:	52800201 	mov	w1, #0x10                  	// #16
 cbc:	2a0403e0 	mov	w0, w4
 cc0:	97fffe6d 	bl	674 <ui2a>
 cc4:	b9404fe0 	ldr	w0, [sp, #76]
 cc8:	910143e1 	add	x1, sp, #0x50
 ccc:	aa0103e4 	mov	x4, x1
 cd0:	39417be3 	ldrb	w3, [sp, #94]
 cd4:	2a0003e2 	mov	w2, w0
 cd8:	f9401be1 	ldr	x1, [sp, #48]
 cdc:	f9401fe0 	ldr	x0, [sp, #56]
 ce0:	97ffff11 	bl	924 <putchw>
 ce4:	1400003e 	b	ddc <tfp_format+0x3d8>
 ce8:	b9401a61 	ldr	w1, [x19, #24]
 cec:	f9400260 	ldr	x0, [x19]
 cf0:	7100003f 	cmp	w1, #0x0
 cf4:	540000ab 	b.lt	d08 <tfp_format+0x304>  // b.tstop
 cf8:	91002c01 	add	x1, x0, #0xb
 cfc:	927df021 	and	x1, x1, #0xfffffffffffffff8
 d00:	f9000261 	str	x1, [x19]
 d04:	1400000d 	b	d38 <tfp_format+0x334>
 d08:	11002022 	add	w2, w1, #0x8
 d0c:	b9001a62 	str	w2, [x19, #24]
 d10:	b9401a62 	ldr	w2, [x19, #24]
 d14:	7100005f 	cmp	w2, #0x0
 d18:	540000ad 	b.le	d2c <tfp_format+0x328>
 d1c:	91002c01 	add	x1, x0, #0xb
 d20:	927df021 	and	x1, x1, #0xfffffffffffffff8
 d24:	f9000261 	str	x1, [x19]
 d28:	14000004 	b	d38 <tfp_format+0x334>
 d2c:	f9400662 	ldr	x2, [x19, #8]
 d30:	93407c20 	sxtw	x0, w1
 d34:	8b000040 	add	x0, x2, x0
 d38:	b9400000 	ldr	w0, [x0]
 d3c:	12001c00 	and	w0, w0, #0xff
 d40:	f9401be2 	ldr	x2, [sp, #48]
 d44:	2a0003e1 	mov	w1, w0
 d48:	f9401fe0 	ldr	x0, [sp, #56]
 d4c:	d63f0040 	blr	x2
 d50:	14000023 	b	ddc <tfp_format+0x3d8>
 d54:	b9404fe5 	ldr	w5, [sp, #76]
 d58:	b9401a61 	ldr	w1, [x19, #24]
 d5c:	f9400260 	ldr	x0, [x19]
 d60:	7100003f 	cmp	w1, #0x0
 d64:	540000ab 	b.lt	d78 <tfp_format+0x374>  // b.tstop
 d68:	91003c01 	add	x1, x0, #0xf
 d6c:	927df021 	and	x1, x1, #0xfffffffffffffff8
 d70:	f9000261 	str	x1, [x19]
 d74:	1400000d 	b	da8 <tfp_format+0x3a4>
 d78:	11002022 	add	w2, w1, #0x8
 d7c:	b9001a62 	str	w2, [x19, #24]
 d80:	b9401a62 	ldr	w2, [x19, #24]
 d84:	7100005f 	cmp	w2, #0x0
 d88:	540000ad 	b.le	d9c <tfp_format+0x398>
 d8c:	91003c01 	add	x1, x0, #0xf
 d90:	927df021 	and	x1, x1, #0xfffffffffffffff8
 d94:	f9000261 	str	x1, [x19]
 d98:	14000004 	b	da8 <tfp_format+0x3a4>
 d9c:	f9400662 	ldr	x2, [x19, #8]
 da0:	93407c20 	sxtw	x0, w1
 da4:	8b000040 	add	x0, x2, x0
 da8:	f9400000 	ldr	x0, [x0]
 dac:	aa0003e4 	mov	x4, x0
 db0:	52800003 	mov	w3, #0x0                   	// #0
 db4:	2a0503e2 	mov	w2, w5
 db8:	f9401be1 	ldr	x1, [sp, #48]
 dbc:	f9401fe0 	ldr	x0, [sp, #56]
 dc0:	97fffed9 	bl	924 <putchw>
 dc4:	14000006 	b	ddc <tfp_format+0x3d8>
 dc8:	f9401be2 	ldr	x2, [sp, #48]
 dcc:	39417fe1 	ldrb	w1, [sp, #95]
 dd0:	f9401fe0 	ldr	x0, [sp, #56]
 dd4:	d63f0040 	blr	x2
 dd8:	d503201f 	nop
 ddc:	f94017e0 	ldr	x0, [sp, #40]
 de0:	91000401 	add	x1, x0, #0x1
 de4:	f90017e1 	str	x1, [sp, #40]
 de8:	39400000 	ldrb	w0, [x0]
 dec:	39017fe0 	strb	w0, [sp, #95]
 df0:	39417fe0 	ldrb	w0, [sp, #95]
 df4:	7100001f 	cmp	w0, #0x0
 df8:	54ffe161 	b.ne	a24 <tfp_format+0x20>  // b.any
 dfc:	14000002 	b	e04 <tfp_format+0x400>
 e00:	d503201f 	nop
 e04:	d503201f 	nop
 e08:	f9400bf3 	ldr	x19, [sp, #16]
 e0c:	a8c67bfd 	ldp	x29, x30, [sp], #96
 e10:	d65f03c0 	ret

0000000000000e14 <init_printf>:
 e14:	d10043ff 	sub	sp, sp, #0x10
 e18:	f90007e0 	str	x0, [sp, #8]
 e1c:	f90003e1 	str	x1, [sp]
 e20:	b0000000 	adrp	x0, 1000 <get_el+0x18>
 e24:	910d0000 	add	x0, x0, #0x340
 e28:	f94003e1 	ldr	x1, [sp]
 e2c:	f9000001 	str	x1, [x0]
 e30:	b0000000 	adrp	x0, 1000 <get_el+0x18>
 e34:	910d2000 	add	x0, x0, #0x348
 e38:	f94007e1 	ldr	x1, [sp, #8]
 e3c:	f9000001 	str	x1, [x0]
 e40:	d503201f 	nop
 e44:	910043ff 	add	sp, sp, #0x10
 e48:	d65f03c0 	ret

0000000000000e4c <tfp_printf>:
 e4c:	a9b67bfd 	stp	x29, x30, [sp, #-160]!
 e50:	910003fd 	mov	x29, sp
 e54:	f9001fe0 	str	x0, [sp, #56]
 e58:	f90037e1 	str	x1, [sp, #104]
 e5c:	f9003be2 	str	x2, [sp, #112]
 e60:	f9003fe3 	str	x3, [sp, #120]
 e64:	f90043e4 	str	x4, [sp, #128]
 e68:	f90047e5 	str	x5, [sp, #136]
 e6c:	f9004be6 	str	x6, [sp, #144]
 e70:	f9004fe7 	str	x7, [sp, #152]
 e74:	910283e0 	add	x0, sp, #0xa0
 e78:	f90023e0 	str	x0, [sp, #64]
 e7c:	910283e0 	add	x0, sp, #0xa0
 e80:	f90027e0 	str	x0, [sp, #72]
 e84:	910183e0 	add	x0, sp, #0x60
 e88:	f9002be0 	str	x0, [sp, #80]
 e8c:	128006e0 	mov	w0, #0xffffffc8            	// #-56
 e90:	b9005be0 	str	w0, [sp, #88]
 e94:	b9005fff 	str	wzr, [sp, #92]
 e98:	b0000000 	adrp	x0, 1000 <get_el+0x18>
 e9c:	910d2000 	add	x0, x0, #0x348
 ea0:	f9400006 	ldr	x6, [x0]
 ea4:	b0000000 	adrp	x0, 1000 <get_el+0x18>
 ea8:	910d0000 	add	x0, x0, #0x340
 eac:	f9400007 	ldr	x7, [x0]
 eb0:	910043e0 	add	x0, sp, #0x10
 eb4:	910103e1 	add	x1, sp, #0x40
 eb8:	a9401424 	ldp	x4, x5, [x1]
 ebc:	a9410c22 	ldp	x2, x3, [x1, #16]
 ec0:	a9001404 	stp	x4, x5, [x0]
 ec4:	a9010c02 	stp	x2, x3, [x0, #16]
 ec8:	910043e0 	add	x0, sp, #0x10
 ecc:	aa0003e3 	mov	x3, x0
 ed0:	f9401fe2 	ldr	x2, [sp, #56]
 ed4:	aa0703e1 	mov	x1, x7
 ed8:	aa0603e0 	mov	x0, x6
 edc:	97fffeca 	bl	a04 <tfp_format>
 ee0:	d503201f 	nop
 ee4:	a8ca7bfd 	ldp	x29, x30, [sp], #160
 ee8:	d65f03c0 	ret

0000000000000eec <putcp>:
 eec:	d10043ff 	sub	sp, sp, #0x10
 ef0:	f90007e0 	str	x0, [sp, #8]
 ef4:	39001fe1 	strb	w1, [sp, #7]
 ef8:	f94007e0 	ldr	x0, [sp, #8]
 efc:	f9400000 	ldr	x0, [x0]
 f00:	91000402 	add	x2, x0, #0x1
 f04:	f94007e1 	ldr	x1, [sp, #8]
 f08:	f9000022 	str	x2, [x1]
 f0c:	39401fe1 	ldrb	w1, [sp, #7]
 f10:	39000001 	strb	w1, [x0]
 f14:	d503201f 	nop
 f18:	910043ff 	add	sp, sp, #0x10
 f1c:	d65f03c0 	ret

0000000000000f20 <tfp_sprintf>:
 f20:	a9b77bfd 	stp	x29, x30, [sp, #-144]!
 f24:	910003fd 	mov	x29, sp
 f28:	f9001fe0 	str	x0, [sp, #56]
 f2c:	f9001be1 	str	x1, [sp, #48]
 f30:	f90033e2 	str	x2, [sp, #96]
 f34:	f90037e3 	str	x3, [sp, #104]
 f38:	f9003be4 	str	x4, [sp, #112]
 f3c:	f9003fe5 	str	x5, [sp, #120]
 f40:	f90043e6 	str	x6, [sp, #128]
 f44:	f90047e7 	str	x7, [sp, #136]
 f48:	910243e0 	add	x0, sp, #0x90
 f4c:	f90023e0 	str	x0, [sp, #64]
 f50:	910243e0 	add	x0, sp, #0x90
 f54:	f90027e0 	str	x0, [sp, #72]
 f58:	910183e0 	add	x0, sp, #0x60
 f5c:	f9002be0 	str	x0, [sp, #80]
 f60:	128005e0 	mov	w0, #0xffffffd0            	// #-48
 f64:	b9005be0 	str	w0, [sp, #88]
 f68:	b9005fff 	str	wzr, [sp, #92]
 f6c:	910043e0 	add	x0, sp, #0x10
 f70:	910103e1 	add	x1, sp, #0x40
 f74:	a9401424 	ldp	x4, x5, [x1]
 f78:	a9410c22 	ldp	x2, x3, [x1, #16]
 f7c:	a9001404 	stp	x4, x5, [x0]
 f80:	a9010c02 	stp	x2, x3, [x0, #16]
 f84:	910043e0 	add	x0, sp, #0x10
 f88:	9100e3e4 	add	x4, sp, #0x38
 f8c:	aa0003e3 	mov	x3, x0
 f90:	f9401be2 	ldr	x2, [sp, #48]
 f94:	90000000 	adrp	x0, 0 <_start>
 f98:	913bb001 	add	x1, x0, #0xeec
 f9c:	aa0403e0 	mov	x0, x4
 fa0:	97fffe99 	bl	a04 <tfp_format>
 fa4:	9100e3e0 	add	x0, sp, #0x38
 fa8:	52800001 	mov	w1, #0x0                   	// #0
 fac:	97ffffd0 	bl	eec <putcp>
 fb0:	d503201f 	nop
 fb4:	a8c97bfd 	ldp	x29, x30, [sp], #144
 fb8:	d65f03c0 	ret

0000000000000fbc <memzero>:
 fbc:	f800841f 	str	xzr, [x0], #8
 fc0:	f1002021 	subs	x1, x1, #0x8
 fc4:	54ffffcc 	b.gt	fbc <memzero>
 fc8:	d65f03c0 	ret

0000000000000fcc <delay>:
 fcc:	f1000400 	subs	x0, x0, #0x1
 fd0:	54ffffe1 	b.ne	fcc <delay>  // b.any
 fd4:	d65f03c0 	ret

0000000000000fd8 <put32>:
 fd8:	b9000001 	str	w1, [x0]
 fdc:	d65f03c0 	ret

0000000000000fe0 <get32>:
 fe0:	b9400000 	ldr	w0, [x0]
 fe4:	d65f03c0 	ret

0000000000000fe8 <get_el>:
 fe8:	d5384240 	mrs	x0, currentel
 fec:	d342fc00 	lsr	x0, x0, #2
 ff0:	d65f03c0 	ret

Disassembly of section .rodata:

0000000000000ff8 <.rodata>:
     ff8:	61750a0a 	.inst	0x61750a0a ; undefined
     ffc:	2d357472 	stp	s18, s29, [x3, #-88]
    1000:	6765723e 	.inst	0x6765723e ; undefined
    1004:	75252073 	.inst	0x75252073 ; undefined
    1008:	0000000a 	udf	#10
    100c:	00000000 	udf	#0
    1010:	54524155 	bc.pl	a5838 <bss_end+0xa44e8>  // bc.nfrst
    1014:	75252030 	.inst	0x75252030 ; undefined
    1018:	0000000a 	udf	#10
    101c:	00000000 	udf	#0
    1020:	34495052 	cbz	w18, 93a28 <bss_end+0x926d8>
    1024:	72614220 	.inst	0x72614220 ; undefined
    1028:	74656d65 	.inst	0x74656d65 ; undefined
    102c:	55206c61 	.inst	0x55206c61 ; undefined
    1030:	35545241 	cbnz	w1, a9a78 <bss_end+0xa8728>
    1034:	304c5020 	adr	x0, 99a39 <bss_end+0x986e9>
    1038:	00003131 	udf	#12593
    103c:	00000000 	udf	#0
    1040:	616f4209 	.inst	0x616f4209 ; undefined
    1044:	203a6472 	.inst	0x203a6472 ; undefined
    1048:	20695052 	.inst	0x20695052 ; undefined
    104c:	00000a34 	udf	#2612
    1050:	4c450a0a 	.inst	0x4c450a0a ; undefined
    1054:	25203d20 	.inst	0x25203d20 ; undefined
    1058:	Address 0x1058 is out of bounds.


Disassembly of section .eh_frame:

0000000000001060 <.eh_frame>:
    1060:	00000010 	udf	#16
    1064:	00000000 	udf	#0
    1068:	00527a01 	.inst	0x00527a01 ; undefined
    106c:	011e7804 	.inst	0x011e7804 ; undefined
    1070:	001f0c1b 	.inst	0x001f0c1b ; undefined
    1074:	00000014 	udf	#20
    1078:	00000018 	udf	#24
    107c:	ffffefb8 	.inst	0xffffefb8 ; undefined
    1080:	000000bc 	udf	#188
    1084:	200e4100 	.inst	0x200e4100 ; undefined
    1088:	00000e6d 	udf	#3693
    108c:	00000020 	udf	#32
    1090:	00000030 	udf	#48
    1094:	fffff05c 	.inst	0xfffff05c ; undefined
    1098:	00000090 	udf	#144
    109c:	200e4100 	.inst	0x200e4100 ; undefined
    10a0:	039e049d 	.inst	0x039e049d ; undefined
    10a4:	0eddde62 	.inst	0x0eddde62 ; undefined
	...
    10b0:	0000001c 	udf	#28
    10b4:	00000054 	udf	#84
    10b8:	fffff0c8 	.inst	0xfffff0c8 ; undefined
    10bc:	00000048 	udf	#72
    10c0:	300e4100 	adr	x0, 1d8e1 <bss_end+0x1c591>
    10c4:	059e069d 	mov	z29.s, p14/z, #52
    10c8:	0eddde50 	.inst	0x0eddde50 ; undefined
    10cc:	00000000 	udf	#0
    10d0:	00000014 	udf	#20
    10d4:	00000074 	udf	#116
    10d8:	fffff0f0 	.inst	0xfffff0f0 ; undefined
    10dc:	000000ac 	udf	#172
    10e0:	200e4100 	.inst	0x200e4100 ; undefined
    10e4:	039e049d 	.inst	0x039e049d ; undefined
    10e8:	00000014 	udf	#20
    10ec:	0000008c 	udf	#140
    10f0:	fffff184 	.inst	0xfffff184 ; undefined
    10f4:	00000028 	udf	#40
    10f8:	100e4100 	adr	x0, 1d918 <bss_end+0x1c5c8>
    10fc:	00000e48 	udf	#3656
    1100:	00000020 	udf	#32
    1104:	000000a4 	udf	#164
    1108:	fffff194 	.inst	0xfffff194 ; undefined
    110c:	000000d0 	udf	#208
    1110:	200e4100 	.inst	0x200e4100 ; undefined
    1114:	039e049d 	.inst	0x039e049d ; undefined
    1118:	70029342 	adr	x2, 6383 <bss_end+0x5033>
    111c:	0ed3ddde 	.inst	0x0ed3ddde ; undefined
    1120:	00000000 	udf	#0
    1124:	00000014 	udf	#20
    1128:	000000c8 	udf	#200
    112c:	fffff240 	.inst	0xfffff240 ; undefined
    1130:	00000040 	udf	#64
    1134:	100e4100 	adr	x0, 1d954 <bss_end+0x1c604>
    1138:	00000e4e 	udf	#3662
    113c:	00000010 	udf	#16
    1140:	000000e0 	udf	#224
    1144:	fffff268 	.inst	0xfffff268 ; undefined
    1148:	00000030 	udf	#48
    114c:	00000000 	udf	#0
    1150:	0000001c 	udf	#28
    1154:	000000f4 	udf	#244
    1158:	fffff284 	.inst	0xfffff284 ; undefined
    115c:	00000060 	udf	#96
    1160:	200e4100 	.inst	0x200e4100 ; undefined
    1164:	039e049d 	.inst	0x039e049d ; undefined
    1168:	0eddde56 	.inst	0x0eddde56 ; undefined
    116c:	00000000 	udf	#0
    1170:	00000014 	udf	#20
    1174:	00000114 	udf	#276
    1178:	fffff2c4 	.inst	0xfffff2c4 ; undefined
    117c:	00000084 	udf	#132
    1180:	200e4100 	.inst	0x200e4100 ; undefined
    1184:	00000e5f 	udf	#3679
    1188:	0000001c 	udf	#28
    118c:	0000012c 	udf	#300
    1190:	fffff330 	.inst	0xfffff330 ; undefined
    1194:	000000c4 	udf	#196
    1198:	200e4100 	.inst	0x200e4100 ; undefined
    119c:	039e049d 	.inst	0x039e049d ; undefined
    11a0:	0eddde6f 	.inst	0x0eddde6f ; undefined
    11a4:	00000000 	udf	#0
    11a8:	00000014 	udf	#20
    11ac:	0000014c 	udf	#332
    11b0:	fffff3d4 	.inst	0xfffff3d4 ; undefined
    11b4:	00000044 	udf	#68
    11b8:	100e4100 	adr	x0, 1d9d8 <bss_end+0x1c688>
    11bc:	00000e4f 	udf	#3663
    11c0:	00000014 	udf	#20
    11c4:	00000164 	udf	#356
    11c8:	fffff400 	.inst	0xfffff400 ; undefined
    11cc:	0000003c 	udf	#60
    11d0:	100e4100 	adr	x0, 1d9f0 <bss_end+0x1c6a0>
    11d4:	00000e4d 	udf	#3661
    11d8:	0000001c 	udf	#28
    11dc:	0000017c 	udf	#380
    11e0:	fffff424 	.inst	0xfffff424 ; undefined
    11e4:	00000070 	udf	#112
    11e8:	200e4100 	.inst	0x200e4100 ; undefined
    11ec:	039e049d 	.inst	0x039e049d ; undefined
    11f0:	0eddde5a 	.inst	0x0eddde5a ; undefined
    11f4:	00000000 	udf	#0
    11f8:	00000014 	udf	#20
    11fc:	0000019c 	udf	#412
    1200:	fffff474 	.inst	0xfffff474 ; undefined
    1204:	00000128 	udf	#296
    1208:	300e4100 	adr	x0, 1da29 <bss_end+0x1c6d9>
    120c:	000e4802 	.inst	0x000e4802 ; undefined
    1210:	0000001c 	udf	#28
    1214:	000001b4 	udf	#436
    1218:	fffff584 	.inst	0xfffff584 ; undefined
    121c:	0000005c 	udf	#92
    1220:	200e4100 	.inst	0x200e4100 ; undefined
    1224:	039e049d 	.inst	0x039e049d ; undefined
    1228:	0eddde55 	.inst	0x0eddde55 ; undefined
    122c:	00000000 	udf	#0
    1230:	00000014 	udf	#20
    1234:	000001d4 	udf	#468
    1238:	fffff5c0 	.inst	0xfffff5c0 ; undefined
    123c:	00000080 	udf	#128
    1240:	100e4100 	adr	x0, 1da60 <bss_end+0x1c710>
    1244:	00000e5e 	udf	#3678
    1248:	0000001c 	udf	#28
    124c:	000001ec 	udf	#492
    1250:	fffff628 	.inst	0xfffff628 ; undefined
    1254:	000000ac 	udf	#172
    1258:	400e4100 	.inst	0x400e4100 ; undefined
    125c:	079e089d 	.inst	0x079e089d ; undefined
    1260:	0eddde69 	.inst	0x0eddde69 ; undefined
    1264:	00000000 	udf	#0
    1268:	0000001c 	udf	#28
    126c:	0000020c 	udf	#524
    1270:	fffff6b4 	.inst	0xfffff6b4 ; undefined
    1274:	000000e0 	udf	#224
    1278:	400e4100 	.inst	0x400e4100 ; undefined
    127c:	079e089d 	.inst	0x079e089d ; undefined
    1280:	0eddde76 	.inst	0x0eddde76 ; undefined
    1284:	00000000 	udf	#0
    1288:	00000020 	udf	#32
    128c:	0000022c 	udf	#556
    1290:	fffff774 	.inst	0xfffff774 ; undefined
    1294:	00000410 	udf	#1040
    1298:	600e4100 	.inst	0x600e4100 ; undefined
    129c:	0b9e0c9d 	add	w29, w4, w30, asr #3
    12a0:	030a9342 	.inst	0x030a9342 ; undefined
    12a4:	ddde0100 	.inst	0xddde0100 ; undefined
    12a8:	00000ed3 	udf	#3795
    12ac:	00000014 	udf	#20
    12b0:	00000250 	udf	#592
    12b4:	fffffb60 	.inst	0xfffffb60 ; undefined
    12b8:	00000038 	udf	#56
    12bc:	100e4100 	adr	x0, 1dadc <bss_end+0x1c78c>
    12c0:	00000e4c 	udf	#3660
    12c4:	0000001c 	udf	#28
    12c8:	00000268 	udf	#616
    12cc:	fffffb80 	.inst	0xfffffb80 ; undefined
    12d0:	000000a0 	udf	#160
    12d4:	a00e4100 	ld1w	{z0.s-z1.s}, pn8/z, [x8, x14, lsl #2]
    12d8:	9e149d01 	.inst	0x9e149d01 ; undefined
    12dc:	ddde6613 	.inst	0xddde6613 ; undefined
    12e0:	0000000e 	udf	#14
    12e4:	00000014 	udf	#20
    12e8:	00000288 	udf	#648
    12ec:	fffffc00 	.inst	0xfffffc00 ; undefined
    12f0:	00000034 	udf	#52
    12f4:	100e4100 	adr	x0, 1db14 <bss_end+0x1c7c4>
    12f8:	00000e4b 	udf	#3659
    12fc:	0000001c 	udf	#28
    1300:	000002a0 	udf	#672
    1304:	fffffc1c 	.inst	0xfffffc1c ; undefined
    1308:	0000009c 	udf	#156
    130c:	900e4100 	adrp	x0, 1c821000 <bss_end+0x1c81fcb0>
    1310:	9e129d01 	.inst	0x9e129d01 ; undefined
    1314:	ddde6511 	.inst	0xddde6511 ; undefined
    1318:	0000000e 	udf	#14

Disassembly of section .data:

0000000000001320 <uart5>:
    1320:	fe201a00 	.inst	0xfe201a00 ; undefined
    1324:	00000000 	udf	#0
    1328:	00000d0c 	udf	#3340
    132c:	00000003 	udf	#3

0000000000001330 <uart0>:
    1330:	fe201000 	.inst	0xfe201000 ; undefined
    1334:	00000000 	udf	#0
    1338:	00000f0e 	udf	#3854
    133c:	00000004 	udf	#4

Disassembly of section .debug_info:

0000000000000000 <.debug_info>:
       0:	000002c7 	udf	#711
       4:	08010005 	stxrb	w1, w5, [x0]
       8:	00000000 	udf	#0
       c:	00018a0d 	.inst	0x00018a0d ; undefined
      10:	00001d00 	udf	#7424
      14:	000b0000 	.inst	0x000b0000 ; undefined
      18:	00340000 	.inst	0x00340000 ; NYI
      1c:	00000000 	udf	#0
      20:	014c0000 	.inst	0x014c0000 ; undefined
	...
      2c:	01030000 	.inst	0x01030000 ; undefined
      30:	00007406 	udf	#29702
      34:	05020300 	orr	z0.d, z0.d, #0x1ffffff
      38:	000001da 	udf	#474
      3c:	6905040e 	stgp	x14, x1, [x0, #160]
      40:	0300746e 	.inst	0x0300746e ; undefined
      44:	021b0508 	.inst	0x021b0508 ; undefined
      48:	22040000 	.inst	0x22040000 ; undefined
      4c:	02000001 	.inst	0x02000001 ; undefined
      50:	0056182e 	.inst	0x0056182e ; undefined
      54:	01030000 	.inst	0x01030000 ; undefined
      58:	00007208 	udf	#29192
      5c:	07020300 	.inst	0x07020300 ; undefined
      60:	0000009a 	udf	#154
      64:	00021204 	.inst	0x00021204 ; undefined
      68:	19340200 	.inst	0x19340200 ; undefined
      6c:	00000070 	udf	#112
      70:	8d070403 	.inst	0x8d070403 ; undefined
      74:	04000000 	add	z0.b, p0/m, z0.b, z0.b
      78:	00000032 	udf	#50
      7c:	83193702 	.inst	0x83193702 ; undefined
      80:	03000000 	.inst	0x03000000 ; undefined
      84:	00880708 	.inst	0x00880708 ; undefined
      88:	75050000 	.inst	0x75050000 ; undefined
      8c:	11060038 	add	w24, w1, #0x180
      90:	0000004a 	udf	#74
      94:	32337505 	orr	w5, w8, #0xffffe7ff
      98:	64120800 	.inst	0x64120800 ; undefined
      9c:	06000000 	.inst	0x06000000 ; undefined
      a0:	00000094 	udf	#148
      a4:	34367505 	cbz	w5, 6cf44 <bss_end+0x6bbf4>
      a8:	77120900 	.inst	0x77120900 ; undefined
      ac:	04000000 	add	z0.b, p0/m, z0.b, z0.b
      b0:	00000000 	udf	#0
      b4:	9f160c03 	.inst	0x9f160c03 ; undefined
      b8:	08000000 	stxrb	w0, w0, [x0]
      bc:	00000116 	udf	#278
      c0:	00df190c 	.inst	0x00df190c ; undefined
      c4:	17010000 	b	fffffffffc0400c4 <bss_end+0xfffffffffc03ed74>
      c8:	1a000000 	adc	w0, w0, w0
      cc:	0000af09 	udf	#44809
      d0:	57010000 	.inst	0x57010000 ; undefined
      d4:	1b000000 	madd	w0, w0, w0, w0
      d8:	0000ef09 	udf	#61193
      dc:	09000400 	.inst	0x09000400 ; undefined
      e0:	000000af 	udf	#175
      e4:	000000ef 	udf	#239
      e8:	0000830a 	udf	#33546
      ec:	06000100 	.inst	0x06000100 ; undefined
      f0:	000000df 	udf	#223
      f4:	00020908 	.inst	0x00020908 ; undefined
      f8:	a823a000 	stnp	x0, x8, [x0, #-456]
      fc:	01000001 	.inst	0x01000001 ; undefined
     100:	0000004b 	udf	#75
     104:	01b80924 	.inst	0x01b80924 ; undefined
     108:	01000000 	.inst	0x01000000 ; undefined
     10c:	000001e4 	udf	#484
     110:	00bb1625 	.inst	0x00bb1625 ; undefined
     114:	01180000 	.inst	0x01180000 ; undefined
     118:	0000022d 	udf	#557
     11c:	00bb1626 	.inst	0x00bb1626 ; undefined
     120:	01240000 	.inst	0x01240000 ; undefined
     124:	00000173 	udf	#371
     128:	00bb1627 	.inst	0x00bb1627 ; undefined
     12c:	01300000 	.inst	0x01300000 ; undefined
     130:	000001f8 	udf	#504
     134:	00bb1628 	.inst	0x00bb1628 ; undefined
     138:	013c0000 	.inst	0x013c0000 ; undefined
     13c:	00000179 	udf	#377
     140:	00bb1629 	.inst	0x00bb1629 ; undefined
     144:	01480000 	.inst	0x01480000 ; undefined
     148:	00000006 	udf	#6
     14c:	00bb162a 	.inst	0x00bb162a ; undefined
     150:	01540000 	.inst	0x01540000 ; undefined
     154:	000000d6 	udf	#214
     158:	00bb162b 	.inst	0x00bb162b ; undefined
     15c:	01600000 	.inst	0x01600000 ; undefined
     160:	000000c5 	udf	#197
     164:	00bb162c 	.inst	0x00bb162c ; undefined
     168:	016c0000 	.inst	0x016c0000 ; undefined
     16c:	0000003b 	udf	#59
     170:	00bb162d 	.inst	0x00bb162d ; undefined
     174:	01780000 	.inst	0x01780000 ; undefined
     178:	00000146 	udf	#326
     17c:	00bb162e 	.inst	0x00bb162e ; undefined
     180:	01840000 	.inst	0x01840000 ; undefined
     184:	00000017 	udf	#23
     188:	00af092f 	.inst	0x00af092f ; undefined
     18c:	01900000 	.inst	0x01900000 ; undefined
     190:	000000ee 	udf	#238
     194:	00af0930 	.inst	0x00af0930 ; undefined
     198:	01940000 	.inst	0x01940000 ; undefined
     19c:	00000133 	udf	#307
     1a0:	00ef0931 	.inst	0x00ef0931 ; undefined
     1a4:	00980000 	.inst	0x00980000 ; undefined
     1a8:	0000af09 	udf	#44809
     1ac:	0001b800 	.inst	0x0001b800 ; undefined
     1b0:	00830a00 	.inst	0x00830a00 ; undefined
     1b4:	00050000 	.inst	0x00050000 ; undefined
     1b8:	0001a806 	.inst	0x0001a806 ; undefined
     1bc:	00bb0b00 	.inst	0x00bb0b00 ; undefined
     1c0:	00700000 	.inst	0x00700000 ; undefined
     1c4:	fc160000 	stur	d0, [x0, #-160]
     1c8:	02000001 	.inst	0x02000001 ; undefined
     1cc:	00000080 	udf	#128
     1d0:	023a0200 	.inst	0x023a0200 ; undefined
     1d4:	02010000 	.inst	0x02010000 ; undefined
     1d8:	000000e7 	udf	#231
     1dc:	01560204 	.inst	0x01560204 ; undefined
     1e0:	02050000 	.inst	0x02050000 ; undefined
     1e4:	000000fa 	udf	#250
     1e8:	01010206 	.inst	0x01010206 ; undefined
     1ec:	02070000 	.inst	0x02070000 ; undefined
     1f0:	00000108 	udf	#264
     1f4:	010f0203 	.inst	0x010f0203 ; undefined
     1f8:	00020000 	.inst	0x00020000 ; undefined
     1fc:	0000bc04 	udf	#48132
     200:	031f0500 	.inst	0x031f0500 ; undefined
     204:	000001bd 	udf	#445
     208:	00012a0b 	.inst	0x00012a0b ; undefined
     20c:	00007000 	udf	#28672
     210:	02292600 	.inst	0x02292600 ; undefined
     214:	24020000 	cmphs	p0.b, p0/z, z0.b, z2.b
     218:	00000002 	udf	#2
     21c:	0000ad02 	udf	#44290
     220:	67020100 	.inst	0x67020100 ; undefined
     224:	02000001 	.inst	0x02000001 ; undefined
     228:	005c0f00 	.inst	0x005c0f00 ; undefined
     22c:	17060000 	b	fffffffffc18022c <bss_end+0xfffffffffc17eedc>
     230:	00023b06 	.inst	0x00023b06 ; undefined
     234:	00a41000 	.inst	0x00a41000 ; undefined
     238:	11000000 	add	w0, w0, #0x0
     23c:	00000062 	udf	#98
     240:	f0063701 	adrp	x1, c6e3000 <bss_end+0xc6e1cb0>
     244:	00000000 	udf	#0
     248:	90000000 	adrp	x0, 0 <_start>
     24c:	00000000 	udf	#0
     250:	01000000 	.inst	0x01000000 ; undefined
     254:	0002689c 	.inst	0x0002689c ; undefined
     258:	015d0700 	.inst	0x015d0700 ; undefined
     25c:	19370000 	.inst	0x19370000 ; undefined
     260:	0000008a 	udf	#138
     264:	007f9102 	.inst	0x007f9102 ; undefined
     268:	00002012 	udf	#8210
     26c:	06160100 	.inst	0x06160100 ; undefined
     270:	00000034 	udf	#52
     274:	00000000 	udf	#0
     278:	000000bc 	udf	#188
     27c:	00000000 	udf	#0
     280:	5d079c01 	.inst	0x5d079c01 ; undefined
     284:	16000001 	b	fffffffff8000288 <bss_end+0xfffffffff7ffef38>
     288:	00008a1b 	udf	#35355
     28c:	6f910200 	mla	v0.4s, v16.4s, v17.s[0]
     290:	00027c07 	.inst	0x00027c07 ; undefined
     294:	fc2f1600 	.inst	0xfc2f1600 ; undefined
     298:	02000001 	.inst	0x02000001 ; undefined
     29c:	430c6891 	.inst	0x430c6891 ; undefined
     2a0:	18000002 	ldr	w2, 2a0 <uart_init+0x4>
     2a4:	00008a06 	udf	#35334
     2a8:	7f910200 	.inst	0x7f910200 ; undefined
     2ac:	67657213 	.inst	0x67657213 ; undefined
     2b0:	06190100 	.inst	0x06190100 ; undefined
     2b4:	0000008a 	udf	#138
     2b8:	0c7e9102 	.inst	0x0c7e9102 ; undefined
     2bc:	000001ef 	udf	#495
     2c0:	0094071c 	.inst	0x0094071c ; undefined
     2c4:	91020000 	add	x0, x0, #0x80
     2c8:	28000078 	stnp	w24, w0, [x3]
     2cc:	05000003 	orr	z3.s, z3.s, #0x1
     2d0:	2e080100 	ext	v0.8b, v8.8b, v8.8b, #0
     2d4:	11000001 	add	w1, w0, #0x0
     2d8:	0000018a 	udf	#394
     2dc:	0000c71d 	udf	#50973
     2e0:	00000b00 	udf	#2816
     2e4:	00018000 	.inst	0x00018000 ; undefined
     2e8:	00000000 	udf	#0
     2ec:	0000f400 	udf	#62464
     2f0:	00000000 	udf	#0
     2f4:	0000d200 	udf	#53760
     2f8:	06010300 	.inst	0x06010300 ; undefined
     2fc:	00000074 	udf	#116
     300:	da050203 	sbc	x3, x16, x5
     304:	12000001 	and	w1, w0, #0x1
     308:	6e690504 	uhadd	v4.8h, v8.8h, v9.8h
     30c:	08030074 	stxrb	w3, w20, [x3]
     310:	00021b05 	.inst	0x00021b05 ; undefined
     314:	01220500 	.inst	0x01220500 ; undefined
     318:	2e020000 	ext	v0.8b, v0.8b, v2.8b, #0
     31c:	00005618 	udf	#22040
     320:	08010300 	stxrb	w1, w0, [x24]
     324:	00000072 	udf	#114
     328:	9a070203 	adc	x3, x16, x7
     32c:	05000000 	orr	z0.s, z0.s, #0x1
     330:	00000212 	udf	#530
     334:	75193402 	.inst	0x75193402 ; undefined
     338:	09000000 	.inst	0x09000000 ; undefined
     33c:	00000064 	udf	#100
     340:	8d070403 	.inst	0x8d070403 ; undefined
     344:	03000000 	.inst	0x03000000 ; undefined
     348:	00880708 	.inst	0x00880708 ; undefined
     34c:	750a0000 	.inst	0x750a0000 ; undefined
     350:	11060038 	add	w24, w1, #0x180
     354:	0000004a 	udf	#74
     358:	3233750a 	orr	w10, w8, #0xffffe7ff
     35c:	64120800 	.inst	0x64120800 ; undefined
     360:	13000000 	sbfx	w0, w0, #0, #1
     364:	0000008d 	udf	#141
     368:	00000005 	udf	#5
     36c:	160c0300 	b	fffffffff8300f6c <bss_end+0xfffffffff82ffc1c>
     370:	00000098 	udf	#152
     374:	4104340b 	.inst	0x4104340b ; undefined
     378:	0000012b 	udf	#299
     37c:	00726408 	.inst	0x00726408 ; undefined
     380:	00009d42 	udf	#40258
     384:	51010000 	sub	w0, w0, #0x40
     388:	04000002 	add	z2.b, p0/m, z2.b, z0.b
     38c:	009d0b43 	.inst	0x009d0b43 ; undefined
     390:	01040000 	.inst	0x01040000 ; undefined
     394:	00000281 	udf	#641
     398:	3b144404 	.inst	0x3b144404 ; undefined
     39c:	08000001 	stxrb	w0, w1, [x0]
     3a0:	00726608 	.inst	0x00726608 ; undefined
     3a4:	00009d45 	udf	#40261
     3a8:	8b011800 	add	x0, x0, x1, lsl #6
     3ac:	04000002 	add	z2.b, p0/m, z2.b, z0.b
     3b0:	00701446 	.inst	0x00701446 ; undefined
     3b4:	011c0000 	.inst	0x011c0000 ; undefined
     3b8:	000002ee 	udf	#750
     3bc:	9d0b4704 	.inst	0x9d0b4704 ; undefined
     3c0:	20000000 	.inst	0x20000000 ; undefined
     3c4:	00025801 	.inst	0x00025801 ; undefined
     3c8:	0b480400 	add	w0, w0, w8, lsr #1
     3cc:	0000009d 	udf	#157
     3d0:	02c70124 	.inst	0x02c70124 ; undefined
     3d4:	49040000 	.inst	0x49040000 ; undefined
     3d8:	00009d0b 	udf	#40203
     3dc:	4c012800 	.inst	0x4c012800 ; undefined
     3e0:	04000002 	add	z2.b, p0/m, z2.b, z0.b
     3e4:	009d0b4a 	.inst	0x009d0b4a ; undefined
     3e8:	082c0000 	.inst	0x082c0000 ; undefined
     3ec:	4b007263 	sub	w3, w19, w0, lsl #28
     3f0:	0000009d 	udf	#157
     3f4:	70140030 	adr	x16, 283fb <bss_end+0x270ab>
     3f8:	3b000000 	.inst	0x3b000000 ; undefined
     3fc:	15000001 	b	4000400 <bss_end+0x3fff0b0>
     400:	0000007c 	udf	#124
     404:	2b090003 	adds	w3, w0, w9
     408:	05000001 	orr	z1.s, z1.s, #0x1
     40c:	000002ac 	udf	#684
     410:	a9035604 	stp	x4, x21, [x16, #48]
     414:	16000000 	b	fffffffff8000414 <bss_end+0xfffffffff7fff0c4>
     418:	000000bb 	udf	#187
     41c:	00750407 	.inst	0x00750407 ; undefined
     420:	16050000 	b	fffffffff8140420 <bss_end+0xfffffffff813f0d0>
     424:	00018f0e 	.inst	0x00018f0e ; undefined
     428:	00800400 	.inst	0x00800400 ; undefined
     42c:	04000000 	add	z0.b, p0/m, z0.b, z0.b
     430:	0000023a 	udf	#570
     434:	00e70401 	.inst	0x00e70401 ; undefined
     438:	04040000 	.inst	0x04040000 ; undefined
     43c:	00000156 	udf	#342
     440:	00fa0405 	.inst	0x00fa0405 ; undefined
     444:	04060000 	.inst	0x04060000 ; undefined
     448:	00000101 	udf	#257
     44c:	01080407 	.inst	0x01080407 ; undefined
     450:	04030000 	subr	z0.b, p0/m, z0.b, z0.b
     454:	0000010f 	udf	#271
     458:	bc050002 	stur	s2, [x0, #80]
     45c:	05000000 	orr	z0.s, z0.s, #0x1
     460:	014c031f 	.inst	0x014c031f ; undefined
     464:	100b0000 	adr	x0, 16464 <bss_end+0x15114>
     468:	01d81806 	.inst	0x01d81806 ; undefined
     46c:	b2010000 	orr	x0, x0, #0x8000000080000000
     470:	06000002 	.inst	0x06000002 ; undefined
     474:	01d80f19 	.inst	0x01d80f19 ; undefined
     478:	01000000 	.inst	0x01000000 ; undefined
     47c:	00000269 	udf	#617
     480:	83061a06 	.inst	0x83061a06 ; undefined
     484:	08000000 	stxrb	w0, w0, [x0]
     488:	00027001 	.inst	0x00027001 ; undefined
     48c:	061b0600 	.inst	0x061b0600 ; undefined
     490:	00000083 	udf	#131
     494:	02770109 	.inst	0x02770109 ; undefined
     498:	1c060000 	ldr	s0, c498 <bss_end+0xb148>
     49c:	00018f0c 	.inst	0x00018f0c ; undefined
     4a0:	06000c00 	.inst	0x06000c00 ; undefined
     4a4:	00000140 	udf	#320
     4a8:	0002d705 	.inst	0x0002d705 ; undefined
     4ac:	031d0600 	.inst	0x031d0600 ; undefined
     4b0:	0000019b 	udf	#411
     4b4:	0002e80c 	.inst	0x0002e80c ; undefined
     4b8:	01dd2000 	.inst	0x01dd2000 ; undefined
     4bc:	e20c0000 	.inst	0xe20c0000 ; undefined
     4c0:	21000002 	.inst	0x21000002 ; undefined
     4c4:	000001dd 	udf	#477
     4c8:	e90d0817 	.inst	0xe90d0817 ; undefined
     4cc:	07000001 	.inst	0x07000001 ; undefined
     4d0:	13200309 	.inst	0x13200309 ; undefined
     4d4:	00000000 	udf	#0
     4d8:	f30d0000 	.inst	0xf30d0000 ; undefined
     4dc:	0c000001 	st4	{v1.8b-v4.8b}, [x0]
     4e0:	13300309 	.inst	0x13300309 ; undefined
     4e4:	00000000 	udf	#0
     4e8:	95180000 	bl	46004e8 <bss_end+0x45ff198>
     4ec:	06000002 	.inst	0x06000002 ; undefined
     4f0:	0235063e 	.inst	0x0235063e ; undefined
     4f4:	02350000 	.inst	0x02350000 ; undefined
     4f8:	3c020000 	stur	b0, [x0, #32]
     4fc:	00000002 	udf	#2
     500:	7b080103 	.inst	0x7b080103 ; undefined
     504:	06000000 	.inst	0x06000000 ; undefined
     508:	000001dd 	udf	#477
     50c:	0002f319 	.inst	0x0002f319 ; undefined
     510:	05330700 	ext	z0.b, z0.b, z24.b, #153
     514:	0000008d 	udf	#141
     518:	00000253 	udf	#595
     51c:	fa07000e 	sbcs	x14, x0, x7
     520:	08000002 	stxrb	w0, w2, [x0]
     524:	00026551 	.inst	0x00026551 ; undefined
     528:	02650200 	.inst	0x02650200 ; undefined
     52c:	000e0000 	.inst	0x000e0000 ; undefined
     530:	00023506 	.inst	0x00023506 ; undefined
     534:	02a00700 	.inst	0x02a00700 ; undefined
     538:	4f080000 	.inst	0x4f080000 ; undefined
     53c:	00000280 	udf	#640
     540:	0001fd02 	.inst	0x0001fd02 ; undefined
     544:	02800200 	.inst	0x02800200 ; undefined
     548:	06000000 	.inst	0x06000000 ; undefined
     54c:	00000285 	udf	#645
     550:	0002951a 	.inst	0x0002951a ; undefined
     554:	01fd0200 	.inst	0x01fd0200 ; undefined
     558:	35020000 	cbnz	w0, 4558 <bss_end+0x3208>
     55c:	00000002 	udf	#2
     560:	0002cc07 	.inst	0x0002cc07 ; undefined
     564:	ab300600 	adds	x0, x16, w16, uxtb #1
     568:	02000002 	.inst	0x02000002 ; undefined
     56c:	0000023c 	udf	#572
     570:	00008d02 	udf	#36098
     574:	bc070000 	stur	s0, [x0, #112]
     578:	06000002 	.inst	0x06000002 ; undefined
     57c:	0002c137 	.inst	0x0002c137 ; undefined
     580:	023c0200 	.inst	0x023c0200 ; undefined
     584:	35020000 	cbnz	w0, 4584 <bss_end+0x3234>
     588:	00000002 	udf	#2
     58c:	00025d1b 	.inst	0x00025d1b ; undefined
     590:	06340100 	.inst	0x06340100 ; undefined
     594:	000001c8 	udf	#456
     598:	00000000 	udf	#0
     59c:	000000ac 	udf	#172
     5a0:	00000000 	udf	#0
     5a4:	02ed9c01 	.inst	0x02ed9c01 ; undefined
     5a8:	dd0f0000 	.inst	0xdd0f0000 ; undefined
     5ac:	38000002 	sturb	w2, [x0]
     5b0:	0000023c 	udf	#572
     5b4:	00789102 	.inst	0x00789102 ; undefined
     5b8:	0002b71c 	.inst	0x0002b71c ; undefined
     5bc:	06240100 	.inst	0x06240100 ; undefined
     5c0:	00000180 	udf	#384
     5c4:	00000000 	udf	#0
     5c8:	00000048 	udf	#72
     5cc:	00000000 	udf	#0
     5d0:	70109c01 	adr	x1, 21953 <bss_end+0x20603>
     5d4:	01fd1100 	.inst	0x01fd1100 ; undefined
     5d8:	91020000 	add	x0, x0, #0x80
     5dc:	00631068 	.inst	0x00631068 ; undefined
     5e0:	00023519 	.inst	0x00023519 ; undefined
     5e4:	67910200 	.inst	0x67910200 ; undefined
     5e8:	0002dd0f 	.inst	0x0002dd0f ; undefined
     5ec:	023c2500 	.inst	0x023c2500 ; undefined
     5f0:	91020000 	add	x0, x0, #0x80
     5f4:	a8000078 	stnp	x24, x0, [x3]
     5f8:	05000002 	orr	z2.s, z2.s, #0x1
     5fc:	cf080100 	.inst	0xcf080100 ; undefined
     600:	0b000002 	add	w2, w0, w0
     604:	0000018a 	udf	#394
     608:	0000e51d 	udf	#58653
     60c:	00000b00 	udf	#2816
     610:	00027400 	.inst	0x00027400 ; undefined
     614:	00000000 	udf	#0
     618:	0001c800 	.inst	0x0001c800 ; undefined
     61c:	00000000 	udf	#0
     620:	00018500 	.inst	0x00018500 ; undefined
     624:	06010200 	.inst	0x06010200 ; undefined
     628:	00000074 	udf	#116
     62c:	da050202 	sbc	x2, x16, x5
     630:	0c000001 	st4	{v1.8b-v4.8b}, [x0]
     634:	6e690504 	uhadd	v4.8h, v8.8h, v9.8h
     638:	08020074 	stxrb	w2, w20, [x3]
     63c:	00021b05 	.inst	0x00021b05 ; undefined
     640:	01220400 	.inst	0x01220400 ; undefined
     644:	2e020000 	ext	v0.8b, v0.8b, v2.8b, #0
     648:	00005618 	udf	#22040
     64c:	08010200 	stxrb	w1, w0, [x16]
     650:	00000072 	udf	#114
     654:	9a070202 	adc	x2, x16, x7
     658:	04000000 	add	z0.b, p0/m, z0.b, z0.b
     65c:	00000212 	udf	#530
     660:	70193402 	adr	x2, 32ce3 <bss_end+0x31993>
     664:	02000000 	.inst	0x02000000 ; undefined
     668:	008d0704 	.inst	0x008d0704 ; undefined
     66c:	08020000 	stxrb	w2, w0, [x0]
     670:	00008807 	udf	#34823
     674:	38750600 	.inst	0x38750600 ; undefined
     678:	4a110600 	eor	w0, w16, w17, lsl #1
     67c:	06000000 	.inst	0x06000000 ; undefined
     680:	00323375 	.inst	0x00323375 ; NYI
     684:	00641208 	.inst	0x00641208 ; undefined
     688:	88070000 	stxr	w7, w0, [x0]
     68c:	04000000 	add	z0.b, p0/m, z0.b, z0.b
     690:	00000000 	udf	#0
     694:	93160c03 	.inst	0x93160c03 ; undefined
     698:	0d000000 	st1	{v0.b}[0], [x0]
     69c:	000000bb 	udf	#187
     6a0:	00700407 	.inst	0x00700407 ; undefined
     6a4:	16040000 	b	fffffffff81006a4 <bss_end+0xfffffffff80ff354>
     6a8:	0000e70e 	udf	#59150
     6ac:	00800300 	.inst	0x00800300 ; undefined
     6b0:	03000000 	.inst	0x03000000 ; undefined
     6b4:	0000023a 	udf	#570
     6b8:	00e70301 	.inst	0x00e70301 ; undefined
     6bc:	03040000 	.inst	0x03040000 ; undefined
     6c0:	00000156 	udf	#342
     6c4:	00fa0305 	.inst	0x00fa0305 ; undefined
     6c8:	03060000 	.inst	0x03060000 ; undefined
     6cc:	00000101 	udf	#257
     6d0:	01080307 	.inst	0x01080307 ; undefined
     6d4:	03030000 	.inst	0x03030000 ; undefined
     6d8:	0000010f 	udf	#271
     6dc:	bc040002 	stur	s2, [x0, #64]
     6e0:	04000000 	add	z0.b, p0/m, z0.b, z0.b
     6e4:	00a4031f 	.inst	0x00a4031f ; undefined
     6e8:	220e0000 	.inst	0x220e0000 ; undefined
     6ec:	6c000003 	stnp	d3, d0, [x0]
     6f0:	9b081805 	madd	x5, x0, x8, x6
     6f4:	01000001 	.inst	0x01000001 ; undefined
     6f8:	00000374 	udf	#884
     6fc:	00009819 	udf	#38937
     700:	3f010000 	.inst	0x3f010000 ; undefined
     704:	1a000003 	adc	w3, w0, w0
     708:	00000098 	udf	#152
     70c:	00170104 	.inst	0x00170104 ; undefined
     710:	ab1b0000 	adds	x0, x0, x27
     714:	08000001 	stxrb	w0, w1, [x0]
     718:	00031c01 	.inst	0x00031c01 ; undefined
     71c:	00981c00 	.inst	0x00981c00 ; undefined
     720:	01400000 	.inst	0x01400000 ; undefined
     724:	00000351 	udf	#849
     728:	0000981d 	udf	#38941
     72c:	5f014400 	.inst	0x5f014400 ; undefined
     730:	1e000003 	.inst	0x1e000003 ; undefined
     734:	00000098 	udf	#152
     738:	036d0148 	.inst	0x036d0148 ; undefined
     73c:	981f0000 	ldrsw	x0, 3e73c <bss_end+0x3d3ec>
     740:	4c000000 	st4	{v0.16b-v3.16b}, [x0]
     744:	00035801 	.inst	0x00035801 ; undefined
     748:	00982000 	.inst	0x00982000 ; undefined
     74c:	01500000 	.inst	0x01500000 ; undefined
     750:	000003c1 	udf	#961
     754:	00009821 	udf	#38945
     758:	88015400 	stxr	w1, w0, [x0]
     75c:	22000003 	.inst	0x22000003 ; undefined
     760:	00000098 	udf	#152
     764:	03340158 	.inst	0x03340158 ; undefined
     768:	98230000 	ldrsw	x0, 46768 <bss_end+0x45418>
     76c:	5c000000 	ldr	d0, 76c <ui2a+0xf8>
     770:	0003a501 	.inst	0x0003a501 ; undefined
     774:	00982400 	.inst	0x00982400 ; undefined
     778:	01600000 	.inst	0x01600000 ; undefined
     77c:	0000032a 	udf	#810
     780:	00009825 	udf	#38949
     784:	0f016400 	movi	v0.2s, #0x20, lsl #24
     788:	26000003 	.inst	0x26000003 ; undefined
     78c:	00000098 	udf	#152
     790:	980f0068 	ldrsw	x8, 1e79c <bss_end+0x1d44c>
     794:	ab000000 	adds	x0, x0, x0
     798:	10000001 	adr	x1, 798 <ui2a+0x124>
     79c:	00000077 	udf	#119
     7a0:	9b07000d 	madd	x13, x0, x7, x0
     7a4:	08000001 	stxrb	w0, w1, [x0]
     7a8:	00000062 	udf	#98
     7ac:	0001c03c 	.inst	0x0001c03c ; undefined
     7b0:	007e0500 	.inst	0x007e0500 ; undefined
     7b4:	08000000 	stxrb	w0, w0, [x0]
     7b8:	00000020 	udf	#32
     7bc:	0001d533 	.inst	0x0001d533 ; undefined
     7c0:	007e0500 	.inst	0x007e0500 ; undefined
     7c4:	e7050000 	.inst	0xe7050000 ; undefined
     7c8:	00000000 	udf	#0
     7cc:	0003b011 	.inst	0x0003b011 ; undefined
     7d0:	06710100 	.inst	0x06710100 ; undefined
     7d4:	000003dc 	udf	#988
     7d8:	00000000 	udf	#0
     7dc:	00000060 	udf	#96
     7e0:	00000000 	udf	#0
     7e4:	02029c01 	.inst	0x02029c01 ; undefined
     7e8:	73090000 	.inst	0x73090000 ; undefined
     7ec:	71007274 	subs	w20, w19, #0x1c
     7f0:	0002021d 	.inst	0x0002021d ; undefined
     7f4:	78910200 	ldursh	x0, [x16, #-240]
     7f8:	08081200 	stxrb	w8, w0, [x16]
     7fc:	02000002 	.inst	0x02000002 ; undefined
     800:	007b0801 	.inst	0x007b0801 ; undefined
     804:	9b130000 	madd	x0, x0, x19, x0
     808:	01000003 	.inst	0x01000003 ; undefined
     80c:	02080663 	.inst	0x02080663 ; undefined
     810:	03ac0000 	.inst	0x03ac0000 ; undefined
     814:	00000000 	udf	#0
     818:	00300000 	.inst	0x00300000 ; NYI
     81c:	00000000 	udf	#0
     820:	9c010000 	ldr	q0, 2820 <bss_end+0x14d0>
     824:	00034714 	.inst	0x00034714 ; undefined
     828:	06560100 	.inst	0x06560100 ; undefined
     82c:	0000036c 	udf	#876
     830:	00000000 	udf	#0
     834:	00000040 	udf	#64
     838:	00000000 	udf	#0
     83c:	02589c01 	.inst	0x02589c01 ; undefined
     840:	63090000 	.inst	0x63090000 ; undefined
     844:	08155600 	stxrb	w21, w0, [x16]
     848:	02000002 	.inst	0x02000002 ; undefined
     84c:	15007f91 	b	4020690 <bss_end+0x401f340>
     850:	00000305 	udf	#773
     854:	9c062f01 	ldr	q1, ce34 <bss_end+0xbae4>
     858:	00000002 	udf	#2
     85c:	d0000000 	adrp	x0, 2000 <bss_end+0xcb0>
     860:	00000000 	udf	#0
     864:	01000000 	.inst	0x01000000 ; undefined
     868:	038f169c 	.inst	0x038f169c ; undefined
     86c:	1e010000 	.inst	0x1e010000 ; undefined
     870:	00008813 	udf	#34835
     874:	00027400 	.inst	0x00027400 ; undefined
     878:	00000000 	udf	#0
     87c:	00002800 	udf	#10240
     880:	00000000 	udf	#0
     884:	0a9c0100 	and	w0, w8, w28, asr #0
     888:	00000366 	udf	#870
     88c:	00008823 	udf	#34851
     890:	7c910200 	.inst	0x7c910200 ; undefined
     894:	00037f0a 	.inst	0x00037f0a ; undefined
     898:	00882f00 	.inst	0x00882f00 ; undefined
     89c:	91020000 	add	x0, x0, #0x80
     8a0:	7c000078 	stur	h24, [x3]
     8a4:	05000003 	orr	z3.s, z3.s, #0x1
     8a8:	3e080100 	.inst	0x3e080100 ; undefined
     8ac:	10000004 	adr	x4, 8ac <a2i+0x34>
     8b0:	0000018a 	udf	#394
     8b4:	0000fb1d 	udf	#64285
     8b8:	00000b00 	udf	#2816
     8bc:	00043c00 	.inst	0x00043c00 ; undefined
     8c0:	00000000 	udf	#0
     8c4:	00023800 	.inst	0x00023800 ; undefined
     8c8:	00000000 	udf	#0
     8cc:	0002af00 	.inst	0x0002af00 ; undefined
     8d0:	06010300 	.inst	0x06010300 ; undefined
     8d4:	00000074 	udf	#116
     8d8:	da050203 	sbc	x3, x16, x5
     8dc:	11000001 	add	w1, w0, #0x0
     8e0:	6e690504 	uhadd	v4.8h, v8.8h, v9.8h
     8e4:	08030074 	stxrb	w3, w20, [x3]
     8e8:	00021b05 	.inst	0x00021b05 ; undefined
     8ec:	01220400 	.inst	0x01220400 ; undefined
     8f0:	2e020000 	ext	v0.8b, v0.8b, v2.8b, #0
     8f4:	00005618 	udf	#22040
     8f8:	08010300 	stxrb	w1, w0, [x24]
     8fc:	00000072 	udf	#114
     900:	9a070203 	adc	x3, x16, x7
     904:	04000000 	add	z0.b, p0/m, z0.b, z0.b
     908:	00000212 	udf	#530
     90c:	75193402 	.inst	0x75193402 ; undefined
     910:	0a000000 	and	w0, w0, w0
     914:	00000064 	udf	#100
     918:	8d070403 	.inst	0x8d070403 ; undefined
     91c:	04000000 	add	z0.b, p0/m, z0.b, z0.b
     920:	00000032 	udf	#50
     924:	88193702 	stxr	w25, w2, [x24]
     928:	03000000 	.inst	0x03000000 ; undefined
     92c:	00880708 	.inst	0x00880708 ; undefined
     930:	75060000 	.inst	0x75060000 ; undefined
     934:	11060038 	add	w24, w1, #0x180
     938:	0000004a 	udf	#74
     93c:	32337506 	orr	w6, w8, #0xffffe7ff
     940:	64120800 	.inst	0x64120800 ; undefined
     944:	12000000 	and	w0, w0, #0x1
     948:	00000099 	udf	#153
     94c:	34367506 	cbz	w6, 6d7ec <bss_end+0x6c49c>
     950:	7c120900 	.inst	0x7c120900 ; undefined
     954:	04000000 	add	z0.b, p0/m, z0.b, z0.b
     958:	00000000 	udf	#0
     95c:	a4160c03 	ld1rqb	{z3.b}, p3/z, [x0, x22]
     960:	0b000000 	add	w0, w0, w0
     964:	000003c8 	udf	#968
     968:	00000075 	udf	#117
     96c:	e9063004 	.inst	0xe9063004 ; undefined
     970:	01000000 	.inst	0x01000000 ; undefined
     974:	000003fd 	udf	#1021
     978:	03e50100 	.inst	0x03e50100 ; undefined
     97c:	01010000 	.inst	0x01010000 ; undefined
     980:	0000040a 	udf	#1034
     984:	04170102 	.inst	0x04170102 ; undefined
     988:	00030000 	.inst	0x00030000 ; undefined
     98c:	4104340c 	.inst	0x4104340c ; undefined
     990:	0000016b 	udf	#363
     994:	00726407 	.inst	0x00726407 ; undefined
     998:	0000b442 	udf	#46146
     99c:	51020000 	sub	w0, w0, #0x80
     9a0:	04000002 	add	z2.b, p0/m, z2.b, z0.b
     9a4:	00b40b43 	.inst	0x00b40b43 ; undefined
     9a8:	02040000 	.inst	0x02040000 ; undefined
     9ac:	00000281 	udf	#641
     9b0:	7b144404 	.inst	0x7b144404 ; undefined
     9b4:	08000001 	stxrb	w0, w1, [x0]
     9b8:	00726607 	.inst	0x00726607 ; undefined
     9bc:	0000b445 	udf	#46149
     9c0:	8b021800 	add	x0, x0, x2, lsl #6
     9c4:	04000002 	add	z2.b, p0/m, z2.b, z0.b
     9c8:	00701446 	.inst	0x00701446 ; undefined
     9cc:	021c0000 	.inst	0x021c0000 ; undefined
     9d0:	000002ee 	udf	#750
     9d4:	b40b4704 	cbz	x4, 172b4 <bss_end+0x15f64>
     9d8:	20000000 	.inst	0x20000000 ; undefined
     9dc:	00025802 	.inst	0x00025802 ; undefined
     9e0:	0b480400 	add	w0, w0, w8, lsr #1
     9e4:	000000b4 	udf	#180
     9e8:	02c70224 	.inst	0x02c70224 ; undefined
     9ec:	49040000 	.inst	0x49040000 ; undefined
     9f0:	0000b40b 	udf	#46091
     9f4:	4c022800 	.inst	0x4c022800 ; undefined
     9f8:	04000002 	add	z2.b, p0/m, z2.b, z0.b
     9fc:	00b40b4a 	.inst	0x00b40b4a ; undefined
     a00:	072c0000 	.inst	0x072c0000 ; undefined
     a04:	4b007263 	sub	w3, w19, w0, lsl #28
     a08:	000000b4 	udf	#180
     a0c:	70130030 	adr	x16, 26a13 <bss_end+0x256c3>
     a10:	7b000000 	.inst	0x7b000000 ; undefined
     a14:	14000001 	b	a18 <tfp_format+0x14>
     a18:	00000088 	udf	#136
     a1c:	6b0a0003 	subs	w3, w0, w10
     a20:	04000001 	add	z1.b, p0/m, z1.b, z0.b
     a24:	000002ac 	udf	#684
     a28:	e9035604 	.inst	0xe9035604 ; undefined
     a2c:	0b000000 	add	w0, w0, w0
     a30:	000000bb 	udf	#187
     a34:	00000075 	udf	#117
     a38:	cd0e1605 	.inst	0xcd0e1605 ; undefined
     a3c:	01000001 	.inst	0x01000001 ; undefined
     a40:	00000080 	udf	#128
     a44:	023a0100 	.inst	0x023a0100 ; undefined
     a48:	01010000 	.inst	0x01010000 ; undefined
     a4c:	000000e7 	udf	#231
     a50:	01560104 	.inst	0x01560104 ; undefined
     a54:	01050000 	.inst	0x01050000 ; undefined
     a58:	000000fa 	udf	#250
     a5c:	01010106 	.inst	0x01010106 ; undefined
     a60:	01070000 	.inst	0x01070000 ; undefined
     a64:	00000108 	udf	#264
     a68:	010f0103 	.inst	0x010f0103 ; undefined
     a6c:	00020000 	.inst	0x00020000 ; undefined
     a70:	0000bc04 	udf	#48132
     a74:	031f0500 	.inst	0x031f0500 ; undefined
     a78:	0000018c 	udf	#396
     a7c:	1806100c 	ldr	w12, cc7c <bss_end+0xb92c>
     a80:	00000216 	udf	#534
     a84:	0002b202 	.inst	0x0002b202 ; undefined
     a88:	0f190600 	sshr	v0.4h, v16.4h, #7
     a8c:	00000216 	udf	#534
     a90:	02690200 	.inst	0x02690200 ; undefined
     a94:	1a060000 	adc	w0, w0, w6
     a98:	00008f06 	udf	#36614
     a9c:	70020800 	adr	x0, 4b9f <bss_end+0x384f>
     aa0:	06000002 	.inst	0x06000002 ; undefined
     aa4:	008f061b 	.inst	0x008f061b ; undefined
     aa8:	02090000 	.inst	0x02090000 ; undefined
     aac:	00000277 	udf	#631
     ab0:	cd0c1c06 	.inst	0xcd0c1c06 ; undefined
     ab4:	0c000001 	st4	{v1.8b-v4.8b}, [x0]
     ab8:	01800800 	.inst	0x01800800 ; undefined
     abc:	d7040000 	.inst	0xd7040000 ; undefined
     ac0:	06000002 	.inst	0x06000002 ; undefined
     ac4:	01d9031d 	.inst	0x01d9031d ; undefined
     ac8:	620d0000 	.inst	0x620d0000 ; undefined
     acc:	3c000000 	stur	b0, [x0]
     ad0:	00000237 	udf	#567
     ad4:	00008f09 	udf	#36617
     ad8:	200d0000 	.inst	0x200d0000 ; undefined
     adc:	33000000 	bfxil	w0, w0, #0, #1
     ae0:	0000024c 	udf	#588
     ae4:	00008f09 	udf	#36617
     ae8:	01cd0900 	.inst	0x01cd0900 ; undefined
     aec:	0e000000 	tbl	v0.8b, {v0.16b}, v0.8b
     af0:	000003d3 	udf	#979
     af4:	00060476 	.inst	0x00060476 ; undefined
     af8:	00000000 	udf	#0
     afc:	00007000 	udf	#28672
     b00:	00000000 	udf	#0
     b04:	859c0100 	ldr	p0, [x8, #224, mul vl]
     b08:	05000002 	orr	z2.s, z2.s, #0x1
     b0c:	000002dd 	udf	#733
     b10:	02852476 	.inst	0x02852476 ; undefined
     b14:	91020000 	add	x0, x0, #0x80
     b18:	74730f78 	.inst	0x74730f78 ; undefined
     b1c:	30760072 	adr	x18, ecb29 <bss_end+0xeb7d9>
     b20:	0000028a 	udf	#650
     b24:	00709102 	.inst	0x00709102 ; undefined
     b28:	00021b08 	.inst	0x00021b08 ; undefined
     b2c:	028f0800 	.inst	0x028f0800 ; undefined
     b30:	01030000 	.inst	0x01030000 ; undefined
     b34:	00007b08 	udf	#31496
     b38:	02951500 	.inst	0x02951500 ; undefined
     b3c:	6c010000 	stnp	d0, d0, [x0, #16]
     b40:	00028f06 	.inst	0x00028f06 ; undefined
     b44:	0005c800 	.inst	0x0005c800 ; undefined
     b48:	00000000 	udf	#0
     b4c:	00003c00 	udf	#15360
     b50:	00000000 	udf	#0
     b54:	c79c0100 	.inst	0xc79c0100 ; undefined
     b58:	05000002 	orr	z2.s, z2.s, #0x1
     b5c:	000002dd 	udf	#733
     b60:	02851d6c 	.inst	0x02851d6c ; undefined
     b64:	91020000 	add	x0, x0, #0x80
     b68:	bc160078 	stur	s24, [x3, #-160]
     b6c:	01000002 	.inst	0x01000002 ; undefined
     b70:	05840660 	.inst	0x05840660 ; undefined
     b74:	00000000 	udf	#0
     b78:	00440000 	.inst	0x00440000 ; undefined
     b7c:	00000000 	udf	#0
     b80:	9c010000 	ldr	q0, 2b80 <bss_end+0x1830>
     b84:	00000300 	udf	#768
     b88:	0002dd05 	.inst	0x0002dd05 ; undefined
     b8c:	851d6000 	ldff1w	{z0.s}, p0/z, [x0, z29.s, uxtw]
     b90:	02000002 	.inst	0x02000002 ; undefined
     b94:	630f7891 	.inst	0x630f7891 ; undefined
     b98:	8f286000 	.inst	0x8f286000 ; undefined
     b9c:	02000002 	.inst	0x02000002 ; undefined
     ba0:	0e007791 	.inst	0x0e007791 ; undefined
     ba4:	000002cc 	udf	#716
     ba8:	0004c045 	.inst	0x0004c045 ; undefined
     bac:	00000000 	udf	#0
     bb0:	0000c400 	udf	#50176
     bb4:	00000000 	udf	#0
     bb8:	399c0100 	ldrsb	x0, [x8, #1792]
     bbc:	05000003 	orr	z3.s, z3.s, #0x1
     bc0:	000002dd 	udf	#733
     bc4:	02851d45 	.inst	0x02851d45 ; undefined
     bc8:	91020000 	add	x0, x0, #0x80
     bcc:	037f0578 	.inst	0x037f0578 ; undefined
     bd0:	27450000 	.inst	0x27450000 ; undefined
     bd4:	00000099 	udf	#153
     bd8:	00749102 	.inst	0x00749102 ; undefined
     bdc:	00042417 	.inst	0x00042417 ; undefined
     be0:	06210100 	.inst	0x06210100 ; undefined
     be4:	0000043c 	udf	#1084
     be8:	00000000 	udf	#0
     bec:	00000084 	udf	#132
     bf0:	00000000 	udf	#0
     bf4:	dd059c01 	.inst	0xdd059c01 ; undefined
     bf8:	21000002 	.inst	0x21000002 ; undefined
     bfc:	0002851f 	.inst	0x0002851f ; undefined
     c00:	68910200 	stgp	x0, x0, [x16], #544
     c04:	00037f05 	.inst	0x00037f05 ; undefined
     c08:	99292100 	.inst	0x99292100 ; undefined
     c0c:	02000000 	.inst	0x02000000 ; undefined
     c10:	f2186491 	ands	x17, x4, #0xffffff03ffffff03
     c14:	01000003 	.inst	0x01000003 ; undefined
     c18:	00a90736 	.inst	0x00a90736 ; undefined
     c1c:	91020000 	add	x0, x0, #0x80
     c20:	97000078 	bl	fffffffffc000e00 <bss_end+0xfffffffffbfffab0>
     c24:	05000004 	orr	z4.s, z4.s, #0x1
     c28:	c6080100 	.inst	0xc6080100 ; undefined
     c2c:	0d000005 	st1	{v5.b}[0], [x0]
     c30:	0000018a 	udf	#394
     c34:	0001071d 	.inst	0x0001071d ; undefined
     c38:	00000b00 	udf	#2816
     c3c:	00067400 	.inst	0x00067400 ; undefined
     c40:	00000000 	udf	#0
     c44:	00094800 	.inst	0x00094800 ; undefined
     c48:	00000000 	udf	#0
     c4c:	0003f900 	.inst	0x0003f900 ; undefined
     c50:	04510600 	.inst	0x04510600 ; undefined
     c54:	28020000 	stnp	w0, w0, [x0, #16]
     c58:	00003a1b 	udf	#14875
     c5c:	048d0e00 	uabd	z0.s, p3/m, z0.s, z16.s
     c60:	03200000 	.inst	0x03200000 ; undefined
     c64:	00007900 	udf	#30976
     c68:	04c60400 	.inst	0x04c60400 ; undefined
     c6c:	00790000 	.inst	0x00790000 ; undefined
     c70:	04000000 	add	z0.b, p0/m, z0.b, z0.b
     c74:	0000043d 	udf	#1085
     c78:	00000079 	udf	#121
     c7c:	04a60408 	sub	z8.s, z0.s, z6.s
     c80:	00790000 	.inst	0x00790000 ; undefined
     c84:	04100000 	mul	z0.b, p0/m, z0.b, z0.b
     c88:	00000478 	udf	#1144
     c8c:	0000007b 	udf	#123
     c90:	04970418 	udivr	z24.s, p1/m, z24.s, z0.s
     c94:	007b0000 	.inst	0x007b0000 ; undefined
     c98:	001c0000 	.inst	0x001c0000 ; undefined
     c9c:	0410080f 	mul	z15.b, p2/m, z15.b, z0.b
     ca0:	746e6905 	.inst	0x746e6905 ; undefined
     ca4:	048f0600 	.inst	0x048f0600 ; undefined
     ca8:	67020000 	.inst	0x67020000 ; undefined
     cac:	00002e18 	udf	#11800
     cb0:	04600600 	sub	z0.h, z16.h, z0.h
     cb4:	13010000 	sbfiz	w0, w0, #31, #1
     cb8:	00009a10 	udf	#39440
     cbc:	009f0500 	.inst	0x009f0500 ; undefined
     cc0:	af110000 	.inst	0xaf110000 ; undefined
     cc4:	0a000000 	and	w0, w0, w0
     cc8:	00000079 	udf	#121
     ccc:	0000af0a 	udf	#44810
     cd0:	01070000 	.inst	0x01070000 ; undefined
     cd4:	00007b08 	udf	#31496
     cd8:	04b50800 	.inst	0x04b50800 ; undefined
     cdc:	0e140000 	tbl	v0.8b, {v0.16b}, v20.8b
     ce0:	0000008e 	udf	#142
     ce4:	13400309 	.inst	0x13400309 ; undefined
     ce8:	00000000 	udf	#0
     cec:	31080000 	adds	w0, w0, #0x200
     cf0:	15000004 	b	4000d00 <bss_end+0x3fff9b0>
     cf4:	0000790e 	udf	#30990
     cf8:	48030900 	stxrh	w3, w0, [x8]
     cfc:	00000013 	udf	#19
     d00:	09000000 	.inst	0x09000000 ; undefined
     d04:	0000046c 	udf	#1132
     d08:	000f20dd 	.inst	0x000f20dd ; undefined
     d0c:	00000000 	udf	#0
     d10:	00009c00 	udf	#39936
     d14:	00000000 	udf	#0
     d18:	289c0100 	stp	w0, w0, [x8], #224
     d1c:	01000001 	.inst	0x01000001 ; undefined
     d20:	18dd0073 	ldr	w19, fffffffffffbad2c <bss_end+0xfffffffffffb99dc>
     d24:	00000128 	udf	#296
     d28:	7fa89103 	fmulx	s3, s8, v8.s[1]
     d2c:	746d6601 	.inst	0x746d6601 ; undefined
     d30:	2820dd00 	stnp	w0, w23, [x8, #-252]
     d34:	03000001 	.inst	0x03000001 ; undefined
     d38:	0b7fa091 	.inst	0x0b7fa091 ; undefined
     d3c:	00617602 	.inst	0x00617602 ; undefined
     d40:	00820ddf 	.inst	0x00820ddf ; undefined
     d44:	91030000 	add	x0, x0, #0xc0
     d48:	05007fb0 	.inst	0x05007fb0 ; undefined
     d4c:	000000af 	udf	#175
     d50:	0004660c 	.inst	0x0004660c ; undefined
     d54:	0eecd600 	.inst	0x0eecd600 ; undefined
     d58:	00000000 	udf	#0
     d5c:	00340000 	.inst	0x00340000 ; NYI
     d60:	00000000 	udf	#0
     d64:	9c010000 	ldr	q0, 2d64 <bss_end+0x1a14>
     d68:	00000162 	udf	#354
     d6c:	d6007001 	.inst	0xd6007001 ; undefined
     d70:	00007919 	udf	#31001
     d74:	78910200 	ldursh	x0, [x16, #-240]
     d78:	d6006301 	.inst	0xd6006301 ; undefined
     d7c:	0000af20 	udf	#44832
     d80:	77910200 	.inst	0x77910200 ; undefined
     d84:	02fa0900 	.inst	0x02fa0900 ; undefined
     d88:	4cce0000 	ld4	{v0.16b-v3.16b}, [x0], x14
     d8c:	0000000e 	udf	#14
     d90:	a0000000 	ld1b	{z0.b-z1.b}, pn8/z, [x0, x0]
     d94:	00000000 	udf	#0
     d98:	01000000 	.inst	0x01000000 ; undefined
     d9c:	00019d9c 	.inst	0x00019d9c ; undefined
     da0:	6d660100 	ldp	d0, d0, [x8, #-416]
     da4:	17ce0074 	b	ffffffffff380f74 <bss_end+0xffffffffff37fc24>
     da8:	00000128 	udf	#296
     dac:	7f989103 	fmulx	s3, s8, v24.s[0]
     db0:	6176020b 	.inst	0x6176020b ; undefined
     db4:	820dd000 	.inst	0x820dd000 ; undefined
     db8:	03000000 	.inst	0x03000000 ; undefined
     dbc:	007fa091 	.inst	0x007fa091 ; undefined
     dc0:	0002a012 	.inst	0x0002a012 ; undefined
     dc4:	06c80100 	.inst	0x06c80100 ; undefined
     dc8:	00000e14 	udf	#3604
     dcc:	00000000 	udf	#0
     dd0:	00000038 	udf	#56
     dd4:	00000000 	udf	#0
     dd8:	01d89c01 	.inst	0x01d89c01 ; undefined
     ddc:	38030000 	sturb	w0, [x0, #48]
     de0:	c8000004 	stxr	w0, x4, [x0]
     de4:	00007918 	udf	#31000
     de8:	78910200 	ldursh	x0, [x16, #-240]
     dec:	0004bc03 	.inst	0x0004bc03 ; undefined
     df0:	9a24c800 	.inst	0x9a24c800 ; undefined
     df4:	02000000 	.inst	0x02000000 ; undefined
     df8:	09007091 	.inst	0x09007091 ; undefined
     dfc:	00000446 	udf	#1094
     e00:	000a0479 	.inst	0x000a0479 ; undefined
     e04:	00000000 	udf	#0
     e08:	00041000 	.inst	0x00041000 ; undefined
     e0c:	00000000 	udf	#0
     e10:	759c0100 	.inst	0x759c0100 ; undefined
     e14:	03000002 	.inst	0x03000002 ; undefined
     e18:	00000438 	udf	#1080
     e1c:	00791779 	.inst	0x00791779 ; undefined
     e20:	91020000 	add	x0, x0, #0x80
     e24:	04bc0358 	add	z24.s, z26.s, z28.s
     e28:	22790000 	.inst	0x22790000 ; undefined
     e2c:	0000008e 	udf	#142
     e30:	01509102 	.inst	0x01509102 ; undefined
     e34:	00746d66 	.inst	0x00746d66 ; undefined
     e38:	01282d79 	.inst	0x01282d79 ; undefined
     e3c:	91020000 	add	x0, x0, #0x80
     e40:	61760148 	.inst	0x61760148 ; undefined
     e44:	823a7900 	.inst	0x823a7900 ; undefined
     e48:	02000000 	.inst	0x02000000 ; undefined
     e4c:	62020083 	.inst	0x62020083 ; undefined
     e50:	0a7b0066 	bic	w6, w3, w27, lsr #0
     e54:	00000275 	udf	#629
     e58:	02709102 	.inst	0x02709102 ; undefined
     e5c:	7d006863 	str	h3, [x3, #52]
     e60:	0000af0a 	udf	#44810
     e64:	7f910200 	.inst	0x7f910200 ; undefined
     e68:	0004af13 	.inst	0x0004af13 ; undefined
     e6c:	05c40100 	.inst	0x05c40100 ; undefined
     e70:	00000e04 	udf	#3588
     e74:	00000000 	udf	#0
     e78:	00000c14 	udf	#3092
     e7c:	7a6c0200 	.inst	0x7a6c0200 ; undefined
     e80:	af128400 	.inst	0xaf128400 ; undefined
     e84:	02000000 	.inst	0x02000000 ; undefined
     e88:	77027e91 	.inst	0x77027e91 ; undefined
     e8c:	7b118800 	.inst	0x7b118800 ; undefined
     e90:	02000000 	.inst	0x02000000 ; undefined
     e94:	00006c91 	udf	#27793
     e98:	0000af15 	udf	#44821
     e9c:	00028500 	.inst	0x00028500 ; undefined
     ea0:	02851600 	.inst	0x02851600 ; undefined
     ea4:	000b0000 	.inst	0x000b0000 ; undefined
     ea8:	88070807 	stxr	w7, w7, [x0]
     eac:	17000000 	b	fffffffffc000eac <bss_end+0xfffffffffbfffb5c>
     eb0:	000004ce 	udf	#1230
     eb4:	240d6c01 	cmplt	p1.b, p3/z, z0.b, z13.d
     eb8:	00000009 	udf	#9
     ebc:	e0000000 	ld1b	{za0h.b[w12, 0]}, p0/z, [x0, x0]
     ec0:	00000000 	udf	#0
     ec4:	01000000 	.inst	0x01000000 ; undefined
     ec8:	0003129c 	.inst	0x0003129c ; undefined
     ecc:	04380300 	add	z0.b, z24.b, z24.b
     ed0:	1a6c0000 	.inst	0x1a6c0000 ; undefined
     ed4:	00000079 	udf	#121
     ed8:	03689102 	.inst	0x03689102 ; undefined
     edc:	000004bc 	udf	#1212
     ee0:	008e256c 	.inst	0x008e256c ; undefined
     ee4:	91020000 	add	x0, x0, #0x80
     ee8:	006e0160 	.inst	0x006e0160 ; undefined
     eec:	007b2e6c 	.inst	0x007b2e6c ; undefined
     ef0:	91020000 	add	x0, x0, #0x80
     ef4:	007a015c 	.inst	0x007a015c ; undefined
     ef8:	00af366c 	.inst	0x00af366c ; undefined
     efc:	91020000 	add	x0, x0, #0x80
     f00:	6662015b 	.inst	0x6662015b ; undefined
     f04:	283f6c00 	stnp	w0, w27, [x0, #-8]
     f08:	02000001 	.inst	0x02000001 ; undefined
     f0c:	66025091 	.inst	0x66025091 ; undefined
     f10:	0a6e0063 	bic	w3, w3, w14, lsr #0
     f14:	000000af 	udf	#175
     f18:	02779102 	.inst	0x02779102 ; undefined
     f1c:	6f006863 	.inst	0x6f006863 ; undefined
     f20:	0000af0a 	udf	#44810
     f24:	76910200 	.inst	0x76910200 ; undefined
     f28:	70007002 	adr	x2, 1d2b <bss_end+0x9db>
     f2c:	0001280b 	.inst	0x0001280b ; undefined
     f30:	78910200 	ldursh	x0, [x16, #-240]
     f34:	32611800 	.inst	0x32611800 ; undefined
     f38:	5d010069 	.inst	0x5d010069 ; undefined
     f3c:	0000af0d 	udf	#44813
     f40:	00087800 	.inst	0x00087800 ; undefined
     f44:	00000000 	udf	#0
     f48:	0000ac00 	udf	#44032
     f4c:	00000000 	udf	#0
     f50:	949c0100 	bl	2701350 <bss_end+0x2700000>
     f54:	01000003 	.inst	0x01000003 ; undefined
     f58:	5d006863 	stlur	h3, [x3, #6]
     f5c:	0000af16 	udf	#44822
     f60:	6f910200 	mla	v0.4s, v16.4s, v17.s[0]
     f64:	63727301 	.inst	0x63727301 ; undefined
     f68:	94215d00 	bl	858368 <bss_end+0x857018>
     f6c:	02000003 	.inst	0x02000003 ; undefined
     f70:	82036091 	.inst	0x82036091 ; undefined
     f74:	5d000004 	.inst	0x5d000004 ; undefined
     f78:	00007b29 	udf	#31529
     f7c:	68910200 	stgp	x0, x0, [x16], #544
     f80:	0004a103 	.inst	0x0004a103 ; undefined
     f84:	99335d00 	.inst	0x99335d00 ; undefined
     f88:	02000003 	.inst	0x02000003 ; undefined
     f8c:	70025891 	adr	x17, 5a9f <bss_end+0x474f>
     f90:	280b5f00 	stnp	w0, w23, [x24, #88]
     f94:	02000001 	.inst	0x02000001 ; undefined
     f98:	6e027891 	ext	v17.16b, v4.16b, v2.16b, #15
     f9c:	60006d75 	.inst	0x60006d75 ; undefined
     fa0:	00007b09 	udf	#31497
     fa4:	74910200 	.inst	0x74910200 ; undefined
     fa8:	00048708 	.inst	0x00048708 ; undefined
     fac:	7b096100 	.inst	0x7b096100 ; undefined
     fb0:	02000000 	.inst	0x02000000 ; undefined
     fb4:	05007091 	orr	z17.s, z17.s, #0x7c0000
     fb8:	00000128 	udf	#296
     fbc:	00007b05 	udf	#31493
     fc0:	32611900 	.inst	0x32611900 ; undefined
     fc4:	52010064 	eor	w4, w3, #0x80000000
     fc8:	00007b0c 	udf	#31500
     fcc:	0007f800 	.inst	0x0007f800 ; undefined
     fd0:	00000000 	udf	#0
     fd4:	00008000 	udf	#32768
     fd8:	00000000 	udf	#0
     fdc:	ce9c0100 	xar	v0.2d, v8.2d, v28.2d, #0
     fe0:	01000003 	.inst	0x01000003 ; undefined
     fe4:	52006863 	eor	w3, w3, #0x7ffffff
     fe8:	0000af15 	udf	#44821
     fec:	7f910200 	.inst	0x7f910200 ; undefined
     ff0:	32691a00 	.inst	0x32691a00 ; undefined
     ff4:	49010061 	.inst	0x49010061 ; undefined
     ff8:	00079c0d 	.inst	0x00079c0d ; undefined
     ffc:	00000000 	udf	#0
    1000:	00005c00 	udf	#23552
    1004:	00000000 	udf	#0
    1008:	089c0100 	stllrb	w0, [x8]
    100c:	01000004 	.inst	0x01000004 ; undefined
    1010:	006d756e 	.inst	0x006d756e ; undefined
    1014:	007b1649 	.inst	0x007b1649 ; undefined
    1018:	91020000 	add	x0, x0, #0x80
    101c:	6662017c 	.inst	0x6662017c ; undefined
    1020:	28224900 	stnp	w0, w18, [x8, #-240]
    1024:	02000001 	.inst	0x02000001 ; undefined
    1028:	0c007091 	st1	{v17.8b}, [x4]
    102c:	000004c1 	udf	#1217
    1030:	00067437 	.inst	0x00067437 ; undefined
    1034:	00000000 	udf	#0
    1038:	00012800 	.inst	0x00012800 ; undefined
    103c:	00000000 	udf	#0
    1040:	939c0100 	.inst	0x939c0100 ; undefined
    1044:	01000004 	.inst	0x01000004 ; undefined
    1048:	006d756e 	.inst	0x006d756e ; undefined
    104c:	04931f37 	umulh	z23.s, p7/m, z23.s, z25.s
    1050:	91020000 	add	x0, x0, #0x80
    1054:	0482036c 	.inst	0x0482036c ; undefined
    1058:	31370000 	adds	w0, w0, #0xdc0
    105c:	00000493 	udf	#1171
    1060:	01689102 	.inst	0x01689102 ; undefined
    1064:	37006375 	tbnz	w21, #0, 1cd0 <bss_end+0x980>
    1068:	00007b3b 	udf	#31547
    106c:	64910200 	fcmla	z0.s, p0/m, z16.s, z17.s, #0
    1070:	00666201 	.inst	0x00666201 ; undefined
    1074:	01284537 	.inst	0x01284537 ; undefined
    1078:	91020000 	add	x0, x0, #0x80
    107c:	006e0258 	.inst	0x006e0258 ; undefined
    1080:	007b0939 	.inst	0x007b0939 ; undefined
    1084:	91020000 	add	x0, x0, #0x80
    1088:	0064027c 	.inst	0x0064027c ; undefined
    108c:	0493123a 	umulh	z26.s, p4/m, z26.s, z17.s
    1090:	91020000 	add	x0, x0, #0x80
    1094:	06c41b78 	.inst	0x06c41b78 ; undefined
    1098:	00000000 	udf	#0
    109c:	00b80000 	.inst	0x00b80000 ; undefined
    10a0:	00000000 	udf	#0
    10a4:	64020000 	.inst	0x64020000 ; undefined
    10a8:	3e007467 	.inst	0x3e007467 ; undefined
    10ac:	00007b0d 	udf	#31501
    10b0:	74910200 	.inst	0x74910200 ; undefined
    10b4:	04070000 	.inst	0x04070000 ; undefined
    10b8:	00008d07 	udf	#36103
    10bc:	00240000 	.inst	0x00240000 ; NYI
    10c0:	00050000 	.inst	0x00050000 ; undefined
    10c4:	07750801 	.inst	0x07750801 ; undefined
    10c8:	29010000 	stp	w0, w0, [x0, #8]
    10cc:	00000006 	udf	#6
    10d0:	00000000 	udf	#0
    10d4:	34000000 	cbz	w0, 10d4 <get_el+0xec>
    10d8:	000004d5 	udf	#1237
    10dc:	000004e0 	udf	#1248
    10e0:	00000531 	udf	#1329
    10e4:	00248001 	.inst	0x00248001 ; NYI
    10e8:	00050000 	.inst	0x00050000 ; undefined
    10ec:	07890801 	.inst	0x07890801 ; undefined
    10f0:	80010000 	.inst	0x80010000 ; undefined
    10f4:	bc000006 	stur	s6, [x0]
    10f8:	0000000f 	udf	#15
    10fc:	10000000 	adr	x0, 10fc <get_el+0x114>
    1100:	0000053d 	udf	#1341
    1104:	000004e0 	udf	#1248
    1108:	00000531 	udf	#1329
    110c:	00248001 	.inst	0x00248001 ; NYI
    1110:	00050000 	.inst	0x00050000 ; undefined
    1114:	079d0801 	.inst	0x079d0801 ; undefined
    1118:	d0010000 	adrp	x0, 2003000 <bss_end+0x2001cb0>
    111c:	cc000006 	.inst	0xcc000006 ; undefined
    1120:	0000000f 	udf	#15
    1124:	28000000 	stnp	w0, w0, [x0]
    1128:	00000546 	udf	#1350
    112c:	000004e0 	udf	#1248
    1130:	00000531 	udf	#1329
    1134:	Address 0x1134 is out of bounds.


Disassembly of section .debug_abbrev:

0000000000000000 <.debug_abbrev>:
   0:	03000d01 	.inst	0x03000d01 ; undefined
   4:	04213a0e 	eor3	z14.d, z14.d, z1.d, z16.d
   8:	0b390b3b 	add	w27, w25, w25, uxtb #2
   c:	0b381349 	add	w9, w26, w24, uxtb #4
  10:	28020000 	stnp	w0, w0, [x0, #16]
  14:	1c0e0300 	ldr	s0, 1c074 <bss_end+0x1ad24>
  18:	0300000b 	.inst	0x0300000b ; undefined
  1c:	0b0b0024 	add	w4, w1, w11
  20:	0e030b3e 	.inst	0x0e030b3e ; undefined
  24:	16040000 	b	fffffffff8100024 <bss_end+0xfffffffff80fecd4>
  28:	3a0e0300 	adcs	w0, w24, w14
  2c:	390b3b0b 	strb	w11, [x24, #718]
  30:	0013490b 	.inst	0x0013490b ; undefined
  34:	00160500 	.inst	0x00160500 ; undefined
  38:	213a0803 	.inst	0x213a0803 ; undefined
  3c:	390b3b03 	strb	w3, [x24, #718]
  40:	0013490b 	.inst	0x0013490b ; undefined
  44:	00350600 	.inst	0x00350600 ; NYI
  48:	00001349 	udf	#4937
  4c:	03000507 	.inst	0x03000507 ; undefined
  50:	01213a0e 	.inst	0x01213a0e ; undefined
  54:	0b390b3b 	add	w27, w25, w25, uxtb #2
  58:	18021349 	ldr	w9, 42c0 <bss_end+0x2f70>
  5c:	13080000 	sbfiz	w0, w0, #24, #1
  60:	0b0e0301 	add	w1, w24, w14
  64:	04213a0b 	eor3	z11.d, z11.d, z1.d, z16.d
  68:	21390b3b 	.inst	0x21390b3b ; undefined
  6c:	00130108 	.inst	0x00130108 ; undefined
  70:	01010900 	.inst	0x01010900 ; undefined
  74:	13011349 	sbfx	w9, w26, #1, #4
  78:	210a0000 	.inst	0x210a0000 ; undefined
  7c:	2f134900 	.inst	0x2f134900 ; undefined
  80:	0b00000b 	add	w11, w0, w0
  84:	0e030104 	tbl	v4.8b, {v8.16b}, v3.8b
  88:	0b07213e 	add	w30, w9, w7, lsl #8
  8c:	13490421 	.inst	0x13490421 ; undefined
  90:	3b05213a 	.inst	0x3b05213a ; undefined
  94:	0e21390b 	.inst	0x0e21390b ; undefined
  98:	00001301 	udf	#4865
  9c:	0300340c 	.inst	0x0300340c ; undefined
  a0:	01213a0e 	.inst	0x01213a0e ; undefined
  a4:	0b390b3b 	add	w27, w25, w25, uxtb #2
  a8:	18021349 	ldr	w9, 4310 <bss_end+0x2fc0>
  ac:	110d0000 	add	w0, w0, #0x340
  b0:	130e2501 	sbfiz	w1, w8, #18, #10
  b4:	1b1f030b 	madd	w11, w24, wzr, w0
  b8:	1201111f 	and	wsp, w8, #0x8000000f
  bc:	00171007 	.inst	0x00171007 ; undefined
  c0:	00240e00 	.inst	0x00240e00 ; NYI
  c4:	0b3e0b0b 	add	w11, w24, w30, uxtb #2
  c8:	00000803 	udf	#2051
  cc:	3f012e0f 	.inst	0x3f012e0f ; undefined
  d0:	3a0e0319 	adcs	w25, w24, w14
  d4:	390b3b0b 	strb	w11, [x24, #718]
  d8:	3c19270b 	str	b11, [x24], #-110
  dc:	00130119 	.inst	0x00130119 ; undefined
  e0:	00051000 	.inst	0x00051000 ; undefined
  e4:	00001349 	udf	#4937
  e8:	3f012e11 	.inst	0x3f012e11 ; undefined
  ec:	3a0e0319 	adcs	w25, w24, w14
  f0:	390b3b0b 	strb	w11, [x24, #718]
  f4:	1119270b 	add	w11, w24, #0x649
  f8:	40071201 	.inst	0x40071201 ; undefined
  fc:	01197c18 	.inst	0x01197c18 ; undefined
 100:	12000013 	and	w19, w0, #0x1
 104:	193f012e 	.inst	0x193f012e ; undefined
 108:	0b3a0e03 	add	w3, w16, w26, uxtb #3
 10c:	0b390b3b 	add	w27, w25, w25, uxtb #2
 110:	01111927 	.inst	0x01111927 ; undefined
 114:	18400712 	ldr	w18, 801f4 <bss_end+0x7eea4>
 118:	0000197a 	udf	#6522
 11c:	03003413 	.inst	0x03003413 ; undefined
 120:	3b0b3a08 	.inst	0x3b0b3a08 ; undefined
 124:	490b390b 	.inst	0x490b390b ; undefined
 128:	00180213 	.inst	0x00180213 ; undefined
 12c:	0d010000 	.inst	0x0d010000 ; undefined
 130:	3a0e0300 	adcs	w0, w24, w14
 134:	390b3b0b 	strb	w11, [x24, #718]
 138:	3813490b 	sttrb	w11, [x8, #-204]
 13c:	0200000b 	.inst	0x0200000b ; undefined
 140:	13490005 	.inst	0x13490005 ; undefined
 144:	24030000 	cmphs	p0.b, p0/z, z0.b, z3.b
 148:	3e0b0b00 	.inst	0x3e0b0b00 ; undefined
 14c:	000e030b 	.inst	0x000e030b ; undefined
 150:	00280400 	.inst	0x00280400 ; NYI
 154:	0b1c0e03 	add	w3, w16, w28, lsl #3
 158:	16050000 	b	fffffffff8140158 <bss_end+0xfffffffff813ee08>
 15c:	3a0e0300 	adcs	w0, w24, w14
 160:	390b3b0b 	strb	w11, [x24, #718]
 164:	0013490b 	.inst	0x0013490b ; undefined
 168:	000f0600 	.inst	0x000f0600 ; undefined
 16c:	4908210b 	.inst	0x4908210b ; undefined
 170:	07000013 	.inst	0x07000013 ; undefined
 174:	193f012e 	.inst	0x193f012e ; undefined
 178:	0b3a0e03 	add	w3, w16, w26, uxtb #3
 17c:	21390b3b 	.inst	0x21390b3b ; undefined
 180:	3c192706 	str	b6, [x24], #-110
 184:	00130119 	.inst	0x00130119 ; undefined
 188:	000d0800 	.inst	0x000d0800 ; undefined
 18c:	213a0803 	.inst	0x213a0803 ; undefined
 190:	390b3b04 	strb	w4, [x24, #718]
 194:	13490b21 	.inst	0x13490b21 ; undefined
 198:	00000b38 	udf	#2872
 19c:	49002609 	.inst	0x49002609 ; undefined
 1a0:	0a000013 	and	w19, w0, w0
 1a4:	08030016 	stxrb	w3, w22, [x0]
 1a8:	3b03213a 	.inst	0x3b03213a ; undefined
 1ac:	490b390b 	.inst	0x490b390b ; undefined
 1b0:	0b000013 	add	w19, w0, w0
 1b4:	0b0b0113 	add	w19, w8, w11
 1b8:	0b3b0b3a 	add	w26, w25, w27, uxtb #2
 1bc:	01092139 	.inst	0x01092139 ; undefined
 1c0:	0c000013 	st4	{v19.8b-v22.8b}, [x0]
 1c4:	0e030034 	tbl	v20.8b, {v1.16b}, v3.8b
 1c8:	3b06213a 	.inst	0x3b06213a ; undefined
 1cc:	1321390b 	.inst	0x1321390b ; undefined
 1d0:	193f1349 	ldclrp	x9, xzr, [x26]
 1d4:	0000193c 	udf	#6460
 1d8:	4700340d 	.inst	0x4700340d ; undefined
 1dc:	01213a13 	.inst	0x01213a13 ; undefined
 1e0:	21390b3b 	.inst	0x21390b3b ; undefined
 1e4:	0018020c 	.inst	0x0018020c ; undefined
 1e8:	00180e00 	.inst	0x00180e00 ; undefined
 1ec:	340f0000 	cbz	w0, 1e1ec <bss_end+0x1ce9c>
 1f0:	3a0e0300 	adcs	w0, w24, w14
 1f4:	0b3b0121 	add	w1, w9, w27, uxtb
 1f8:	490f2139 	.inst	0x490f2139 ; undefined
 1fc:	00180213 	.inst	0x00180213 ; undefined
 200:	00051000 	.inst	0x00051000 ; undefined
 204:	213a0803 	.inst	0x213a0803 ; undefined
 208:	24213b01 	cmplo	p1.b, p6/z, z24.b, #4
 20c:	13490b39 	.inst	0x13490b39 ; undefined
 210:	00001802 	udf	#6146
 214:	25011111 	cmpgt	p1.b, p4/z, z8.b, #1
 218:	030b130e 	.inst	0x030b130e ; undefined
 21c:	111f1b1f 	add	wsp, w24, #0x7c6
 220:	10071201 	adr	x1, e460 <bss_end+0xd110>
 224:	12000017 	and	w23, w0, #0x1
 228:	0b0b0024 	add	w4, w1, w11
 22c:	08030b3e 	stxrb	w3, w30, [x25]
 230:	35130000 	cbnz	w0, 26230 <bss_end+0x24ee0>
 234:	00134900 	.inst	0x00134900 ; undefined
 238:	01011400 	.inst	0x01011400 ; undefined
 23c:	13011349 	sbfx	w9, w26, #1, #4
 240:	21150000 	.inst	0x21150000 ; undefined
 244:	2f134900 	.inst	0x2f134900 ; undefined
 248:	1600000b 	b	fffffffff8000274 <bss_end+0xfffffffff7ffef24>
 24c:	0e030104 	tbl	v4.8b, {v8.16b}, v3.8b
 250:	0b0b0b3e 	add	w30, w25, w11, lsl #2
 254:	0b3a1349 	add	w9, w26, w26, uxtb #4
 258:	0b390b3b 	add	w27, w25, w25, uxtb #2
 25c:	00001301 	udf	#4865
 260:	0b000f17 	add	w23, w24, w0, lsl #3
 264:	1800000b 	ldr	w11, 264 <kernel_main+0x9c>
 268:	193f012e 	.inst	0x193f012e ; undefined
 26c:	0b3a0e03 	add	w3, w16, w26, uxtb #3
 270:	0b390b3b 	add	w27, w25, w25, uxtb #2
 274:	13491927 	.inst	0x13491927 ; undefined
 278:	1301193c 	sbfx	w28, w9, #1, #6
 27c:	2e190000 	ext	v0.8b, v0.8b, v25.8b, #0
 280:	03193f01 	.inst	0x03193f01 ; undefined
 284:	3b0b3a0e 	.inst	0x3b0b3a0e ; undefined
 288:	490b390b 	.inst	0x490b390b ; undefined
 28c:	01193c13 	.inst	0x01193c13 ; undefined
 290:	1a000013 	adc	w19, w0, w0
 294:	19270115 	.inst	0x19270115 ; undefined
 298:	00001301 	udf	#4865
 29c:	3f012e1b 	.inst	0x3f012e1b ; undefined
 2a0:	3a0e0319 	adcs	w25, w24, w14
 2a4:	390b3b0b 	strb	w11, [x24, #718]
 2a8:	1201110b 	and	w11, w8, #0x8000000f
 2ac:	7c184007 	stur	h7, [x0, #-124]
 2b0:	00130119 	.inst	0x00130119 ; undefined
 2b4:	012e1c00 	.inst	0x012e1c00 ; undefined
 2b8:	0e03193f 	uzp1	v31.8b, v9.8b, v3.8b
 2bc:	0b3b0b3a 	add	w26, w25, w27, uxtb #2
 2c0:	19270b39 	rcwcas	x7, x25, [x25]
 2c4:	07120111 	.inst	0x07120111 ; undefined
 2c8:	197c1840 	.inst	0x197c1840 ; undefined
 2cc:	01000000 	.inst	0x01000000 ; undefined
 2d0:	0e03000d 	tbl	v13.8b, {v0.16b}, v3.8b
 2d4:	3b05213a 	.inst	0x3b05213a ; undefined
 2d8:	0921390b 	.inst	0x0921390b ; undefined
 2dc:	0b381349 	add	w9, w26, w24, uxtb #4
 2e0:	24020000 	cmphs	p0.b, p0/z, z0.b, z2.b
 2e4:	3e0b0b00 	.inst	0x3e0b0b00 ; undefined
 2e8:	000e030b 	.inst	0x000e030b ; undefined
 2ec:	00280300 	.inst	0x00280300 ; NYI
 2f0:	0b1c0e03 	add	w3, w16, w28, lsl #3
 2f4:	16040000 	b	fffffffff81002f4 <bss_end+0xfffffffff80fefa4>
 2f8:	3a0e0300 	adcs	w0, w24, w14
 2fc:	390b3b0b 	strb	w11, [x24, #718]
 300:	0013490b 	.inst	0x0013490b ; undefined
 304:	00050500 	.inst	0x00050500 ; undefined
 308:	00001349 	udf	#4937
 30c:	03001606 	.inst	0x03001606 ; undefined
 310:	03213a08 	.inst	0x03213a08 ; undefined
 314:	0b390b3b 	add	w27, w25, w25, uxtb #2
 318:	00001349 	udf	#4937
 31c:	49003507 	.inst	0x49003507 ; undefined
 320:	08000013 	stxrb	w0, w19, [x0]
 324:	193f012e 	.inst	0x193f012e ; undefined
 328:	213a0e03 	.inst	0x213a0e03 ; undefined
 32c:	390b3b04 	strb	w4, [x24, #718]
 330:	19270621 	.inst	0x19270621 ; undefined
 334:	1301193c 	sbfx	w28, w9, #1, #6
 338:	05090000 	.inst	0x05090000 ; undefined
 33c:	3a080300 	adcs	w0, w24, w8
 340:	0b3b0121 	add	w1, w9, w27, uxtb
 344:	13490b39 	.inst	0x13490b39 ; undefined
 348:	00001802 	udf	#6146
 34c:	0300050a 	.inst	0x0300050a ; undefined
 350:	01213a0e 	.inst	0x01213a0e ; undefined
 354:	391e213b 	strb	w27, [x9, #1928]
 358:	0213490b 	.inst	0x0213490b ; undefined
 35c:	0b000018 	add	w24, w0, w0
 360:	0e250111 	saddl	v17.8h, v8.8b, v5.8b
 364:	1f030b13 	fmadd	s19, s24, s3, s2
 368:	01111f1b 	.inst	0x01111f1b ; undefined
 36c:	17100712 	b	fffffffffc401fb4 <bss_end+0xfffffffffc400c64>
 370:	240c0000 	cmphs	p0.b, p0/z, z0.b, z12.b
 374:	3e0b0b00 	.inst	0x3e0b0b00 ; undefined
 378:	0008030b 	.inst	0x0008030b ; undefined
 37c:	01040d00 	.inst	0x01040d00 ; undefined
 380:	0b3e0e03 	add	w3, w16, w30, uxtb #3
 384:	13490b0b 	.inst	0x13490b0b ; undefined
 388:	0b3b0b3a 	add	w26, w25, w27, uxtb #2
 38c:	13010b39 	sbfx	w25, w25, #1, #2
 390:	130e0000 	sbfiz	w0, w0, #18, #1
 394:	0b0e0301 	add	w1, w24, w14
 398:	3b0b3a0b 	.inst	0x3b0b3a0b ; undefined
 39c:	010b390b 	.inst	0x010b390b ; undefined
 3a0:	0f000013 	.inst	0x0f000013 ; undefined
 3a4:	13490101 	.inst	0x13490101 ; undefined
 3a8:	00001301 	udf	#4865
 3ac:	49002110 	.inst	0x49002110 ; undefined
 3b0:	000b2f13 	.inst	0x000b2f13 ; undefined
 3b4:	012e1100 	.inst	0x012e1100 ; undefined
 3b8:	0e03193f 	uzp1	v31.8b, v9.8b, v3.8b
 3bc:	0b3b0b3a 	add	w26, w25, w27, uxtb #2
 3c0:	19270b39 	rcwcas	x7, x25, [x25]
 3c4:	07120111 	.inst	0x07120111 ; undefined
 3c8:	197c1840 	.inst	0x197c1840 ; undefined
 3cc:	00001301 	udf	#4865
 3d0:	0b000f12 	add	w18, w24, w0, lsl #3
 3d4:	0013490b 	.inst	0x0013490b ; undefined
 3d8:	002e1300 	.inst	0x002e1300 ; NYI
 3dc:	0e03193f 	uzp1	v31.8b, v9.8b, v3.8b
 3e0:	0b3b0b3a 	add	w26, w25, w27, uxtb #2
 3e4:	13490b39 	.inst	0x13490b39 ; undefined
 3e8:	07120111 	.inst	0x07120111 ; undefined
 3ec:	197a1840 	.inst	0x197a1840 ; undefined
 3f0:	2e140000 	ext	v0.8b, v0.8b, v20.8b, #0
 3f4:	03193f01 	.inst	0x03193f01 ; undefined
 3f8:	3b0b3a0e 	.inst	0x3b0b3a0e ; undefined
 3fc:	270b390b 	.inst	0x270b390b ; undefined
 400:	12011119 	and	w25, w8, #0x8000000f
 404:	7a184007 	.inst	0x7a184007 ; undefined
 408:	00130119 	.inst	0x00130119 ; undefined
 40c:	002e1500 	.inst	0x002e1500 ; NYI
 410:	0e03193f 	uzp1	v31.8b, v9.8b, v3.8b
 414:	0b3b0b3a 	add	w26, w25, w27, uxtb #2
 418:	01110b39 	.inst	0x01110b39 ; undefined
 41c:	18400712 	ldr	w18, 804fc <bss_end+0x7f1ac>
 420:	0000197c 	udf	#6524
 424:	03012e16 	.inst	0x03012e16 ; undefined
 428:	3b0b3a0e 	.inst	0x3b0b3a0e ; undefined
 42c:	270b390b 	.inst	0x270b390b ; undefined
 430:	11134919 	add	w25, w8, #0x4d2
 434:	40071201 	.inst	0x40071201 ; undefined
 438:	00197a18 	.inst	0x00197a18 ; undefined
 43c:	28010000 	stnp	w0, w0, [x0, #8]
 440:	1c0e0300 	ldr	s0, 1c4a0 <bss_end+0x1b150>
 444:	0200000b 	.inst	0x0200000b ; undefined
 448:	0e03000d 	tbl	v13.8b, {v0.16b}, v3.8b
 44c:	0b3b0b3a 	add	w26, w25, w27, uxtb #2
 450:	13490b39 	.inst	0x13490b39 ; undefined
 454:	00000b38 	udf	#2872
 458:	0b002403 	add	w3, w0, w0, lsl #9
 45c:	030b3e0b 	.inst	0x030b3e0b ; undefined
 460:	0400000e 	add	z14.b, p0/m, z14.b, z0.b
 464:	0e030016 	tbl	v22.8b, {v0.16b}, v3.8b
 468:	0b3b0b3a 	add	w26, w25, w27, uxtb #2
 46c:	13490b39 	.inst	0x13490b39 ; undefined
 470:	05050000 	.inst	0x05050000 ; undefined
 474:	3a0e0300 	adcs	w0, w24, w14
 478:	0b3b0121 	add	w1, w9, w27, uxtb
 47c:	13490b39 	.inst	0x13490b39 ; undefined
 480:	00001802 	udf	#6146
 484:	03001606 	.inst	0x03001606 ; undefined
 488:	03213a08 	.inst	0x03213a08 ; undefined
 48c:	0b390b3b 	add	w27, w25, w25, uxtb #2
 490:	00001349 	udf	#4937
 494:	03000d07 	.inst	0x03000d07 ; undefined
 498:	04213a08 	eor3	z8.d, z8.d, z1.d, z16.d
 49c:	21390b3b 	.inst	0x21390b3b ; undefined
 4a0:	3813490b 	sttrb	w11, [x8, #-204]
 4a4:	0800000b 	stxrb	w0, w11, [x0]
 4a8:	210b000f 	.inst	0x210b000f ; undefined
 4ac:	00134908 	.inst	0x00134908 ; undefined
 4b0:	00050900 	.inst	0x00050900 ; undefined
 4b4:	00001349 	udf	#4937
 4b8:	4900260a 	.inst	0x4900260a ; undefined
 4bc:	0b000013 	add	w19, w0, w0
 4c0:	0e030104 	tbl	v4.8b, {v8.16b}, v3.8b
 4c4:	0b07213e 	add	w30, w9, w7, lsl #8
 4c8:	13490421 	.inst	0x13490421 ; undefined
 4cc:	0b3b0b3a 	add	w26, w25, w27, uxtb #2
 4d0:	13010b39 	sbfx	w25, w25, #1, #2
 4d4:	130c0000 	sbfiz	w0, w0, #20, #1
 4d8:	3a0b0b01 	.inst	0x3a0b0b01 ; undefined
 4dc:	390b3b0b 	strb	w11, [x24, #718]
 4e0:	13010921 	sbfx	w1, w9, #1, #2
 4e4:	2e0d0000 	ext	v0.8b, v0.8b, v13.8b, #0
 4e8:	03193f01 	.inst	0x03193f01 ; undefined
 4ec:	05213a0e 	.inst	0x05213a0e ; undefined
 4f0:	21390b3b 	.inst	0x21390b3b ; undefined
 4f4:	3c192706 	str	b6, [x24], #-110
 4f8:	00130119 	.inst	0x00130119 ; undefined
 4fc:	012e0e00 	.inst	0x012e0e00 ; undefined
 500:	0e03193f 	uzp1	v31.8b, v9.8b, v3.8b
 504:	3b01213a 	.inst	0x3b01213a ; undefined
 508:	0621390b 	.inst	0x0621390b ; undefined
 50c:	01111927 	.inst	0x01111927 ; undefined
 510:	18400712 	ldr	w18, 805f0 <bss_end+0x7f2a0>
 514:	1301197c 	sbfx	w28, w11, #1, #6
 518:	050f0000 	.inst	0x050f0000 ; undefined
 51c:	3a080300 	adcs	w0, w24, w8
 520:	0b3b0121 	add	w1, w9, w27, uxtb
 524:	13490b39 	.inst	0x13490b39 ; undefined
 528:	00001802 	udf	#6146
 52c:	25011110 	cmpgt	p0.b, p4/z, z8.b, #1
 530:	030b130e 	.inst	0x030b130e ; undefined
 534:	111f1b1f 	add	wsp, w24, #0x7c6
 538:	10071201 	adr	x1, e778 <bss_end+0xd428>
 53c:	11000017 	add	w23, w0, #0x0
 540:	0b0b0024 	add	w4, w1, w11
 544:	08030b3e 	stxrb	w3, w30, [x25]
 548:	35120000 	cbnz	w0, 24548 <bss_end+0x231f8>
 54c:	00134900 	.inst	0x00134900 ; undefined
 550:	01011300 	.inst	0x01011300 ; undefined
 554:	13011349 	sbfx	w9, w26, #1, #4
 558:	21140000 	.inst	0x21140000 ; undefined
 55c:	2f134900 	.inst	0x2f134900 ; undefined
 560:	1500000b 	b	400058c <bss_end+0x3fff23c>
 564:	193f012e 	.inst	0x193f012e ; undefined
 568:	0b3a0e03 	add	w3, w16, w26, uxtb #3
 56c:	0b390b3b 	add	w27, w25, w25, uxtb #2
 570:	13491927 	.inst	0x13491927 ; undefined
 574:	07120111 	.inst	0x07120111 ; undefined
 578:	197a1840 	.inst	0x197a1840 ; undefined
 57c:	00001301 	udf	#4865
 580:	3f012e16 	.inst	0x3f012e16 ; undefined
 584:	3a0e0319 	adcs	w25, w24, w14
 588:	390b3b0b 	strb	w11, [x24, #718]
 58c:	1119270b 	add	w11, w24, #0x649
 590:	40071201 	.inst	0x40071201 ; undefined
 594:	01197a18 	.inst	0x01197a18 ; undefined
 598:	17000013 	b	fffffffffc0005e4 <bss_end+0xfffffffffbfff294>
 59c:	193f012e 	.inst	0x193f012e ; undefined
 5a0:	0b3a0e03 	add	w3, w16, w26, uxtb #3
 5a4:	0b390b3b 	add	w27, w25, w25, uxtb #2
 5a8:	01111927 	.inst	0x01111927 ; undefined
 5ac:	18400712 	ldr	w18, 8068c <bss_end+0x7f33c>
 5b0:	0000197a 	udf	#6522
 5b4:	03003418 	.inst	0x03003418 ; undefined
 5b8:	3b0b3a0e 	.inst	0x3b0b3a0e ; undefined
 5bc:	490b390b 	.inst	0x490b390b ; undefined
 5c0:	00180213 	.inst	0x00180213 ; undefined
 5c4:	05010000 	orr	z0.s, z0.s, #0x1
 5c8:	3a080300 	adcs	w0, w24, w8
 5cc:	0b3b0121 	add	w1, w9, w27, uxtb
 5d0:	13490b39 	.inst	0x13490b39 ; undefined
 5d4:	00001802 	udf	#6146
 5d8:	03003402 	.inst	0x03003402 ; undefined
 5dc:	01213a08 	.inst	0x01213a08 ; undefined
 5e0:	0b390b3b 	add	w27, w25, w25, uxtb #2
 5e4:	18021349 	ldr	w9, 484c <bss_end+0x34fc>
 5e8:	05030000 	orr	z0.d, z0.d, #0x100000000
 5ec:	3a0e0300 	adcs	w0, w24, w14
 5f0:	0b3b0121 	add	w1, w9, w27, uxtb
 5f4:	13490b39 	.inst	0x13490b39 ; undefined
 5f8:	00001802 	udf	#6146
 5fc:	03000d04 	.inst	0x03000d04 ; undefined
 600:	3813490e 	sttrb	w14, [x8, #-204]
 604:	0019340b 	.inst	0x0019340b ; undefined
 608:	000f0500 	.inst	0x000f0500 ; undefined
 60c:	4908210b 	.inst	0x4908210b ; undefined
 610:	06000013 	.inst	0x06000013 ; undefined
 614:	0e030016 	tbl	v22.8b, {v0.16b}, v3.8b
 618:	0b3b0b3a 	add	w26, w25, w27, uxtb #2
 61c:	13490b39 	.inst	0x13490b39 ; undefined
 620:	24070000 	cmphs	p0.b, p0/z, z0.b, z7.b
 624:	3e0b0b00 	.inst	0x3e0b0b00 ; undefined
 628:	000e030b 	.inst	0x000e030b ; undefined
 62c:	00340800 	.inst	0x00340800 ; NYI
 630:	213a0e03 	.inst	0x213a0e03 ; undefined
 634:	390b3b01 	strb	w1, [x24, #718]
 638:	0213490b 	.inst	0x0213490b ; undefined
 63c:	09000018 	.inst	0x09000018 ; undefined
 640:	193f012e 	.inst	0x193f012e ; undefined
 644:	213a0e03 	.inst	0x213a0e03 ; undefined
 648:	390b3b01 	strb	w1, [x24, #718]
 64c:	19270621 	.inst	0x19270621 ; undefined
 650:	07120111 	.inst	0x07120111 ; undefined
 654:	197c1840 	.inst	0x197c1840 ; undefined
 658:	00001301 	udf	#4865
 65c:	4900050a 	.inst	0x4900050a ; undefined
 660:	0b000013 	add	w19, w0, w0
 664:	00000018 	udf	#24
 668:	03012e0c 	.inst	0x03012e0c ; undefined
 66c:	01213a0e 	.inst	0x01213a0e ; undefined
 670:	21390b3b 	.inst	0x21390b3b ; undefined
 674:	1119270d 	add	w13, w24, #0x649
 678:	40071201 	.inst	0x40071201 ; undefined
 67c:	01197a18 	.inst	0x01197a18 ; undefined
 680:	0d000013 	st1	{v19.b}[0], [x0]
 684:	0e250111 	saddl	v17.8h, v8.8b, v5.8b
 688:	1f030b13 	fmadd	s19, s24, s3, s2
 68c:	01111f1b 	.inst	0x01111f1b ; undefined
 690:	17100712 	b	fffffffffc4022d8 <bss_end+0xfffffffffc400f88>
 694:	130e0000 	sbfiz	w0, w0, #18, #1
 698:	0b0e0301 	add	w1, w24, w14
 69c:	3b0b3a0b 	.inst	0x3b0b3a0b ; undefined
 6a0:	0013010b 	.inst	0x0013010b ; undefined
 6a4:	000f0f00 	.inst	0x000f0f00 ; undefined
 6a8:	00000b0b 	udf	#2827
 6ac:	0b002410 	add	w16, w0, w0, lsl #9
 6b0:	030b3e0b 	.inst	0x030b3e0b ; undefined
 6b4:	11000008 	add	w8, w0, #0x0
 6b8:	19270115 	.inst	0x19270115 ; undefined
 6bc:	00001301 	udf	#4865
 6c0:	3f012e12 	.inst	0x3f012e12 ; undefined
 6c4:	3a0e0319 	adcs	w25, w24, w14
 6c8:	390b3b0b 	strb	w11, [x24, #718]
 6cc:	1119270b 	add	w11, w24, #0x649
 6d0:	40071201 	.inst	0x40071201 ; undefined
 6d4:	01197a18 	.inst	0x01197a18 ; undefined
 6d8:	13000013 	sbfx	w19, w0, #0, #1
 6dc:	0e03000a 	tbl	v10.8b, {v0.16b}, v3.8b
 6e0:	0b3b0b3a 	add	w26, w25, w27, uxtb #2
 6e4:	01110b39 	.inst	0x01110b39 ; undefined
 6e8:	0b140000 	add	w0, w0, w20
 6ec:	00175501 	.inst	0x00175501 ; undefined
 6f0:	01011500 	.inst	0x01011500 ; undefined
 6f4:	13011349 	sbfx	w9, w26, #1, #4
 6f8:	21160000 	.inst	0x21160000 ; undefined
 6fc:	2f134900 	.inst	0x2f134900 ; undefined
 700:	1700000b 	b	fffffffffc00072c <bss_end+0xfffffffffbfff3dc>
 704:	0e03012e 	tbl	v14.8b, {v9.16b}, v3.8b
 708:	0b3b0b3a 	add	w26, w25, w27, uxtb #2
 70c:	19270b39 	rcwcas	x7, x25, [x25]
 710:	07120111 	.inst	0x07120111 ; undefined
 714:	197c1840 	.inst	0x197c1840 ; undefined
 718:	00001301 	udf	#4865
 71c:	03012e18 	.inst	0x03012e18 ; undefined
 720:	3b0b3a08 	.inst	0x3b0b3a08 ; undefined
 724:	270b390b 	.inst	0x270b390b ; undefined
 728:	11134919 	add	w25, w8, #0x4d2
 72c:	40071201 	.inst	0x40071201 ; undefined
 730:	01197c18 	.inst	0x01197c18 ; undefined
 734:	19000013 	stlurb	w19, [x0]
 738:	0803012e 	stxrb	w3, w14, [x9]
 73c:	0b3b0b3a 	add	w26, w25, w27, uxtb #2
 740:	19270b39 	rcwcas	x7, x25, [x25]
 744:	01111349 	.inst	0x01111349 ; undefined
 748:	18400712 	ldr	w18, 80828 <bss_end+0x7f4d8>
 74c:	1301197a 	sbfx	w26, w11, #1, #6
 750:	2e1a0000 	ext	v0.8b, v0.8b, v26.8b, #0
 754:	3a080301 	adcs	w1, w24, w8
 758:	390b3b0b 	strb	w11, [x24, #718]
 75c:	1119270b 	add	w11, w24, #0x649
 760:	40071201 	.inst	0x40071201 ; undefined
 764:	01197c18 	.inst	0x01197c18 ; undefined
 768:	1b000013 	madd	w19, w0, w0, w0
 76c:	0111010b 	.inst	0x0111010b ; undefined
 770:	00000712 	udf	#1810
 774:	00110100 	.inst	0x00110100 ; undefined
 778:	01111710 	.inst	0x01111710 ; undefined
 77c:	0e030f12 	dup	v18.8b, w24
 780:	0e250e1b 	sqadd	v27.8b, v16.8b, v5.8b
 784:	00000513 	udf	#1299
 788:	00110100 	.inst	0x00110100 ; undefined
 78c:	01111710 	.inst	0x01111710 ; undefined
 790:	0e030f12 	dup	v18.8b, w24
 794:	0e250e1b 	sqadd	v27.8b, v16.8b, v5.8b
 798:	00000513 	udf	#1299
 79c:	00110100 	.inst	0x00110100 ; undefined
 7a0:	01111710 	.inst	0x01111710 ; undefined
 7a4:	0e030f12 	dup	v18.8b, w24
 7a8:	0e250e1b 	sqadd	v27.8b, v16.8b, v5.8b
 7ac:	00000513 	udf	#1299
	...

Disassembly of section .debug_aranges:

0000000000000000 <.debug_aranges>:
   0:	0000002c 	udf	#44
   4:	00000002 	udf	#2
   8:	00080000 	.inst	0x00080000 ; undefined
   c:	00000000 	udf	#0
  10:	00000034 	udf	#52
  14:	00000000 	udf	#0
  18:	0000014c 	udf	#332
	...
  30:	0000002c 	udf	#44
  34:	02cb0002 	.inst	0x02cb0002 ; undefined
  38:	00080000 	.inst	0x00080000 ; undefined
  3c:	00000000 	udf	#0
  40:	00000180 	udf	#384
  44:	00000000 	udf	#0
  48:	000000f4 	udf	#244
	...
  60:	0000002c 	udf	#44
  64:	05f70002 	.inst	0x05f70002 ; undefined
  68:	00080000 	.inst	0x00080000 ; undefined
  6c:	00000000 	udf	#0
  70:	00000274 	udf	#628
  74:	00000000 	udf	#0
  78:	000001c8 	udf	#456
	...
  90:	0000002c 	udf	#44
  94:	08a30002 	.inst	0x08a30002 ; undefined
  98:	00080000 	.inst	0x00080000 ; undefined
  9c:	00000000 	udf	#0
  a0:	0000043c 	udf	#1084
  a4:	00000000 	udf	#0
  a8:	00000238 	udf	#568
	...
  c0:	0000002c 	udf	#44
  c4:	0c230002 	.inst	0x0c230002 ; undefined
  c8:	00080000 	.inst	0x00080000 ; undefined
  cc:	00000000 	udf	#0
  d0:	00000674 	udf	#1652
  d4:	00000000 	udf	#0
  d8:	00000948 	udf	#2376
	...
  f0:	0000002c 	udf	#44
  f4:	10be0002 	adr	x2, fffffffffff7c0f4 <bss_end+0xfffffffffff7ada4>
  f8:	00080000 	.inst	0x00080000 ; undefined
	...
 108:	00000034 	udf	#52
	...
 120:	0000002c 	udf	#44
 124:	10e60002 	adr	x2, fffffffffffcc124 <bss_end+0xfffffffffffcadd4>
 128:	00080000 	.inst	0x00080000 ; undefined
 12c:	00000000 	udf	#0
 130:	00000fbc 	udf	#4028
 134:	00000000 	udf	#0
 138:	00000010 	udf	#16
	...
 150:	0000002c 	udf	#44
 154:	110e0002 	add	w2, w0, #0x380
 158:	00080000 	.inst	0x00080000 ; undefined
 15c:	00000000 	udf	#0
 160:	00000fcc 	udf	#4044
 164:	00000000 	udf	#0
 168:	00000028 	udf	#40
	...

Disassembly of section .debug_line:

0000000000000000 <.debug_line>:
   0:	000000ce 	udf	#206
   4:	00080005 	.inst	0x00080005 ; undefined
   8:	00000053 	udf	#83
   c:	fb010104 	.inst	0xfb010104 ; undefined
  10:	01000d0e 	.inst	0x01000d0e ; undefined
  14:	00010101 	.inst	0x00010101 ; undefined
  18:	00010000 	.inst	0x00010000 ; undefined
  1c:	01010100 	.inst	0x01010100 ; undefined
  20:	000b051f 	.inst	0x000b051f ; undefined
  24:	005c0000 	.inst	0x005c0000 ; undefined
  28:	00600000 	.inst	0x00600000 ; undefined
  2c:	00860000 	.inst	0x00860000 ; undefined
  30:	008e0000 	.inst	0x008e0000 ; undefined
  34:	01020000 	.inst	0x01020000 ; undefined
  38:	070f021f 	.inst	0x070f021f ; undefined
  3c:	00000004 	udf	#4
  40:	00000401 	udf	#1025
  44:	00a20100 	.inst	0x00a20100 ; undefined
  48:	af020000 	.inst	0xaf020000 ; undefined
  4c:	03000000 	.inst	0x03000000 ; undefined
  50:	000000b8 	udf	#184
  54:	0000b804 	udf	#47108
  58:	00bf0300 	.inst	0x00bf0300 ; undefined
  5c:	05030000 	orr	z0.d, z0.d, #0x100000000
  60:	02090035 	.inst	0x02090035 ; undefined
  64:	00000034 	udf	#52
  68:	00000000 	udf	#0
  6c:	05011503 	orr	z3.h, z3.h, #0xc07f
  70:	29053e1c 	stp	w28, w15, [x16, #40]
  74:	5806054a 	ldr	x10, c11c <bss_end+0xadcc>
  78:	771b0521 	.inst	0x771b0521 ; undefined
  7c:	05202805 	tbl	z5.b, {z0.b-z1.b}, z0.b
  80:	17052007 	b	fffffffffc14809c <bss_end+0xfffffffffc146d4c>
  84:	3c0f053f 	str	b31, [x9], #240
  88:	052e0c05 	ext	z5.b, z5.b, z0.b, #115
  8c:	0c053d15 	.inst	0x0c053d15 ; undefined
  90:	19053f3c 	.inst	0x19053f3c ; undefined
  94:	201f0520 	.inst	0x201f0520 ; undefined
  98:	053d0105 	ext	z5.b, z5.b, z8.b, #232
  9c:	3c130323 	stur	b3, [x25, #-208]
  a0:	053d0c05 	ext	z5.b, z5.b, z0.b, #235
  a4:	0305201a 	.inst	0x0305201a ; undefined
  a8:	2f430521 	.inst	0x2f430521 ; undefined
  ac:	052e3505 	.inst	0x052e3505 ; undefined
  b0:	2b052e0c 	adds	w12, w16, w5, lsl #11
  b4:	3c310520 	.inst	0x3c310520 ; undefined
  b8:	05590305 	mov	z5.h, p9/z, #24
  bc:	1a052f0c 	.inst	0x1a052f0c ; undefined
  c0:	210c0520 	.inst	0x210c0520 ; undefined
  c4:	05202b05 	tbl	z5.b, {z24.b-z25.b}, z0.b
  c8:	01053c31 	.inst	0x01053c31 ; undefined
  cc:	00030259 	.inst	0x00030259 ; undefined
  d0:	00af0101 	.inst	0x00af0101 ; undefined
  d4:	00050000 	.inst	0x00050000 ; undefined
  d8:	005d0008 	.inst	0x005d0008 ; undefined
  dc:	01040000 	.inst	0x01040000 ; undefined
  e0:	0d0efb01 	.inst	0x0d0efb01 ; undefined
  e4:	01010100 	.inst	0x01010100 ; undefined
  e8:	00000001 	udf	#1
  ec:	01000001 	.inst	0x01000001 ; undefined
  f0:	051f0101 	mov	z1.b, p15/z, #8
  f4:	0000000b 	udf	#11
  f8:	0000005c 	udf	#92
  fc:	00000060 	udf	#96
 100:	00000086 	udf	#134
 104:	0000008e 	udf	#142
 108:	021f0102 	.inst	0x021f0102 ; undefined
 10c:	00cb090f 	.inst	0x00cb090f ; undefined
 110:	cb010000 	sub	x0, x0, x1
 114:	01000000 	.inst	0x01000000 ; undefined
 118:	000000a2 	udf	#162
 11c:	0000af02 	udf	#44802
 120:	00d40300 	.inst	0x00d40300 ; undefined
 124:	b8040000 	stur	w0, [x0, #64]
 128:	03000000 	.inst	0x03000000 ; undefined
 12c:	000000d4 	udf	#212
 130:	0000bf03 	udf	#48899
 134:	00dc0300 	.inst	0x00dc0300 ; undefined
 138:	05030000 	orr	z0.d, z0.d, #0x100000000
 13c:	0209001c 	.inst	0x0209001c ; undefined
 140:	00000180 	udf	#384
 144:	00000000 	udf	#0
 148:	05012303 	orr	z3.s, z3.s, #0xf01fffff
 14c:	05054b0f 	.inst	0x05054b0f ; undefined
 150:	3d02052f 	str	b15, [x9, #129]
 154:	053e0305 	ext	z5.b, z5.b, z24.b, #240
 158:	14053d01 	b	14f55c <bss_end+0x14e20c>
 15c:	053c0a03 	ext	z3.b, z3.b, z16.b, #226
 160:	0305320f 	.inst	0x0305320f ; undefined
 164:	36054b3e 	tbz	w30, #0, ffffffffffffaac8 <bss_end+0xffffffffffff9778>
 168:	3c03054b 	str	b11, [x10], #48
 16c:	0c035a4b 	.inst	0x0c035a4b ; undefined
 170:	02003f3c 	.inst	0x02003f3c ; undefined
 174:	20060104 	.inst	0x20060104 ; undefined
 178:	02000205 	.inst	0x02000205 ; undefined
 17c:	4e060104 	tbl	v4.16b, {v8.16b}, v6.16b
 180:	01000702 	.inst	0x01000702 ; undefined
 184:	00012601 	.inst	0x00012601 ; undefined
 188:	08000500 	stxrb	w0, w0, [x8]
 18c:	00004e00 	udf	#19968
 190:	01010400 	.inst	0x01010400 ; undefined
 194:	000d0efb 	.inst	0x000d0efb ; undefined
 198:	01010101 	.inst	0x01010101 ; undefined
 19c:	01000000 	.inst	0x01000000 ; undefined
 1a0:	01010000 	.inst	0x01010000 ; undefined
 1a4:	0b051f01 	add	w1, w24, w5, lsl #7
 1a8:	5c000000 	ldr	d0, 1a8 <putc+0x28>
 1ac:	60000000 	.inst	0x60000000 ; undefined
 1b0:	86000000 	.inst	0x86000000 ; undefined
 1b4:	8e000000 	.inst	0x8e000000 ; undefined
 1b8:	02000000 	.inst	0x02000000 ; undefined
 1bc:	0f021f01 	.inst	0x0f021f01 ; undefined
 1c0:	0000e906 	udf	#59654
 1c4:	00e90100 	.inst	0x00e90100 ; undefined
 1c8:	a2010000 	.inst	0xa2010000 ; undefined
 1cc:	02000000 	.inst	0x02000000 ; undefined
 1d0:	000000af 	udf	#175
 1d4:	0000b803 	udf	#47107
 1d8:	00f50300 	.inst	0x00f50300 ; undefined
 1dc:	05040000 	.inst	0x05040000 ; undefined
 1e0:	02090038 	.inst	0x02090038 ; undefined
 1e4:	00000274 	udf	#628
 1e8:	00000000 	udf	#0
 1ec:	05011d03 	orr	z3.h, z3.h, #0xe03f
 1f0:	12053d18 	and	w24, w8, #0xf80007ff
 1f4:	2e25052e 	uhadd	v14.8b, v9.8b, v5.8b
 1f8:	05210105 	ext	z5.b, z5.b, z8.b, #8
 1fc:	2e0f0311 	ext	v17.8b, v24.8b, v15.8b, #0
 200:	3d3d0305 	str	b5, [x24, #3904]
 204:	0b052f3e 	add	w30, w25, w5, lsl #11
 208:	2e150530 	.inst	0x2e150530 ; undefined
 20c:	052f0b05 	ext	z5.b, z5.b, z24.b, #122
 210:	0b052e18 	add	w24, w16, w5, lsl #11
 214:	2e140521 	.inst	0x2e140521 ; undefined
 218:	05210b05 	ext	z5.b, z5.b, z24.b, #10
 21c:	0b052e14 	add	w20, w16, w5, lsl #11
 220:	2e14052f 	.inst	0x2e14052f ; undefined
 224:	0a030b05 	and	w5, w24, w3, lsl #2
 228:	2e240520 	uhadd	v0.8b, v9.8b, v4.8b
 22c:	02001a05 	.inst	0x02001a05 ; undefined
 230:	05580104 	mov	z4.h, p8/z, #8
 234:	1805230b 	ldr	w11, a694 <bss_end+0x9344>
 238:	3003052e 	adr	x14, 62dd <bss_end+0x4f8d>
 23c:	01052f2f 	.inst	0x01052f2f ; undefined
 240:	0318052f 	.inst	0x0318052f ; undefined
 244:	09054a0a 	.inst	0x09054a0a ; undefined
 248:	0015052f 	.inst	0x0015052f ; undefined
 24c:	20010402 	.inst	0x20010402 ; undefined
 250:	02001e05 	.inst	0x02001e05 ; undefined
 254:	053c0104 	ext	z4.b, z4.b, z8.b, #224
 258:	0402000a 	.inst	0x0402000a ; undefined
 25c:	0b052001 	add	w1, w0, w5, lsl #8
 260:	2e130531 	.inst	0x2e130531 ; undefined
 264:	052f0105 	ext	z5.b, z5.b, z8.b, #120
 268:	09054411 	.inst	0x09054411 ; undefined
 26c:	00140513 	.inst	0x00140513 ; undefined
 270:	20010402 	.inst	0x20010402 ; undefined
 274:	02001d05 	.inst	0x02001d05 ; undefined
 278:	053c0104 	ext	z4.b, z4.b, z8.b, #224
 27c:	0402000a 	.inst	0x0402000a ; undefined
 280:	12052001 	and	w1, w0, #0xf800000f
 284:	3c1a0531 	str	b17, [x9], #-96
 288:	05210105 	ext	z5.b, z5.b, z8.b, #8
 28c:	20090322 	.inst	0x20090322 ; undefined
 290:	053e0805 	ext	z5.b, z5.b, z0.b, #242
 294:	04052105 	addqv	v5.16b, p0, z8.b
 298:	02052f2e 	.inst	0x02052f2e ; undefined
 29c:	3d050531 	str	b17, [x9, #321]
 2a0:	7a030905 	.inst	0x7a030905 ; undefined
 2a4:	0301053c 	.inst	0x0301053c ; undefined
 2a8:	04024a09 	mla	z9.b, p2/m, z16.b, z2.b
 2ac:	46010100 	.inst	0x46010100 ; undefined
 2b0:	05000001 	orr	z1.s, z1.s, #0x1
 2b4:	53000800 	ubfx	w0, w0, #0, #3
 2b8:	04000000 	add	z0.b, p0/m, z0.b, z0.b
 2bc:	0efb0101 	.inst	0x0efb0101 ; undefined
 2c0:	0101000d 	.inst	0x0101000d ; undefined
 2c4:	00000101 	udf	#257
 2c8:	00000100 	udf	#256
 2cc:	1f010101 	fmadd	s1, s8, s1, s0
 2d0:	00000b05 	udf	#2821
 2d4:	00005c00 	udf	#23552
 2d8:	00006000 	udf	#24576
 2dc:	00008600 	udf	#34304
 2e0:	00008e00 	udf	#36352
 2e4:	1f010200 	fmadd	s0, s16, s1, s0
 2e8:	ff070f02 	.inst	0xff070f02 ; undefined
 2ec:	01000000 	.inst	0x01000000 ; undefined
 2f0:	000000ff 	udf	#255
 2f4:	0000a201 	udf	#41473
 2f8:	00af0200 	.inst	0x00af0200 ; undefined
 2fc:	d4030000 	.inst	0xd4030000 ; undefined
 300:	04000000 	add	z0.b, p0/m, z0.b, z0.b
 304:	000000b8 	udf	#184
 308:	0000d403 	udf	#54275
 30c:	33050300 	bfi	w0, w24, #27, #1
 310:	3c020900 	.inst	0x3c020900 ; undefined
 314:	00000004 	udf	#4
 318:	03000000 	.inst	0x03000000 ; undefined
 31c:	05050120 	.inst	0x05050120 ; undefined
 320:	4209053d 	.inst	0x4209053d ; undefined
 324:	052e1405 	ext	z5.b, z5.b, z0.b, #117
 328:	200e0333 	.inst	0x200e0333 ; undefined
 32c:	053c2805 	tbl	z5.b, {z0.b-z1.b}, z28.b
 330:	07053c39 	.inst	0x07053c39 ; undefined
 334:	302a0520 	adr	x0, 543d9 <bss_end+0x53089>
 338:	052e0705 	ext	z5.b, z5.b, z24.b, #113
 33c:	16052e14 	b	fffffffff814bb8c <bss_end+0xfffffffff814a83c>
 340:	2e070521 	.inst	0x2e070521 ; undefined
 344:	052e1605 	ext	z5.b, z5.b, z16.b, #117
 348:	09052014 	.inst	0x09052014 ; undefined
 34c:	052e6a03 	uzp1	z3.b, z16.b, z14.b
 350:	20190301 	.inst	0x20190301 ; undefined
 354:	09033105 	.inst	0x09033105 ; undefined
 358:	4b03052e 	sub	w14, w9, w3, lsl #1
 35c:	053d7675 	trn2	z21.b, z19.b, z29.b
 360:	06053f0b 	.inst	0x06053f0b ; undefined
 364:	2f10052e 	ushr	v14.4h, v9.4h, #16
 368:	054d0305 	.inst	0x054d0305 ; undefined
 36c:	0d053e07 	.inst	0x0d053e07 ; undefined
 370:	2007052e 	.inst	0x2007052e ; undefined
 374:	052e1405 	ext	z5.b, z5.b, z0.b, #117
 378:	12053107 	and	w7, w8, #0xf80000ff
 37c:	3101052e 	adds	w14, w9, #0x41
 380:	05432a05 	eor	z5.d, z5.d, #0xffff8000000
 384:	0e053d08 	umov	w8, v8.b[2]
 388:	01040200 	.inst	0x01040200 ; undefined
 38c:	00140520 	.inst	0x00140520 ; undefined
 390:	2e010402 	.inst	0x2e010402 ; undefined
 394:	02001905 	.inst	0x02001905 ; undefined
 398:	05200104 	ext	z4.b, z4.b, z8.b, #0
 39c:	0402000a 	.inst	0x0402000a ; undefined
 3a0:	07052001 	.inst	0x07052001 ; undefined
 3a4:	2e120531 	.inst	0x2e120531 ; undefined
 3a8:	052f0105 	ext	z5.b, z5.b, z8.b, #120
 3ac:	08054323 	stxrb	w5, w3, [x25]
 3b0:	000e052f 	.inst	0x000e052f ; undefined
 3b4:	20010402 	.inst	0x20010402 ; undefined
 3b8:	02001405 	.inst	0x02001405 ; undefined
 3bc:	052e0104 	ext	z4.b, z4.b, z8.b, #112
 3c0:	04020019 	.inst	0x04020019 ; undefined
 3c4:	0a052001 	and	w1, w0, w5, lsl #8
 3c8:	01040200 	.inst	0x01040200 ; undefined
 3cc:	31160520 	adds	w0, w9, #0x581
 3d0:	052e1c05 	ext	z5.b, z5.b, z0.b, #119
 3d4:	0105200b 	.inst	0x0105200b ; undefined
 3d8:	33350521 	.inst	0x33350521 ; undefined
 3dc:	054c0905 	.inst	0x054c0905 ; undefined
 3e0:	05052106 	.inst	0x05052106 ; undefined
 3e4:	2f04052e 	mvni	v14.2s, #0x89
 3e8:	053e0205 	ext	z5.b, z5.b, z16.b, #240
 3ec:	0a055905 	and	w5, w8, w5, lsl #22
 3f0:	52010537 	eor	w23, w9, #0x80000001
 3f4:	01000402 	.inst	0x01000402 ; undefined
 3f8:	00022c01 	.inst	0x00022c01 ; undefined
 3fc:	08000500 	stxrb	w0, w0, [x8]
 400:	00003c00 	udf	#15360
 404:	01010400 	.inst	0x01010400 ; undefined
 408:	000d0efb 	.inst	0x000d0efb ; undefined
 40c:	01010101 	.inst	0x01010101 ; undefined
 410:	01000000 	.inst	0x01000000 ; undefined
 414:	01010000 	.inst	0x01010000 ; undefined
 418:	0b031f01 	add	w1, w24, w3, lsl #7
 41c:	5c000000 	ldr	d0, 41c <uart_send_string+0x40>
 420:	60000000 	.inst	0x60000000 ; undefined
 424:	02000000 	.inst	0x02000000 ; undefined
 428:	0f021f01 	.inst	0x0f021f01 ; undefined
 42c:	00010b04 	.inst	0x00010b04 ; undefined
 430:	010b0100 	.inst	0x010b0100 ; undefined
 434:	14010000 	b	40434 <bss_end+0x3f0e4>
 438:	02000001 	.inst	0x02000001 ; undefined
 43c:	0000011d 	udf	#285
 440:	00050500 	.inst	0x00050500 ; undefined
 444:	06740209 	.inst	0x06740209 ; undefined
 448:	00000000 	udf	#0
 44c:	37030000 	tbnz	w0, #0, 644c <bss_end+0x50fc>
 450:	59090501 	.inst	0x59090501 ; undefined
 454:	05211205 	ext	z5.b, z5.b, z16.b, #12
 458:	0a052f0b 	and	w11, w24, w5, lsl #11
 45c:	490f0521 	.inst	0x490f0521 ; undefined
 460:	053c1205 	ext	z5.b, z5.b, z16.b, #228
 464:	17053e0b 	b	fffffffffc14fc90 <bss_end+0xfffffffffc14e940>
 468:	3c0d0521 	str	b1, [x9], #208
 46c:	05210c05 	ext	z5.b, z5.b, z0.b, #11
 470:	0c05750a 	.inst	0x0c05750a ; undefined
 474:	000f054b 	.inst	0x000f054b ; undefined
 478:	3c010402 	str	b2, [x0], #16
 47c:	02001805 	.inst	0x02001805 ; undefined
 480:	3d3c0204 	str	b4, [x16, #3840]
 484:	01040200 	.inst	0x01040200 ; undefined
 488:	02003c06 	.inst	0x02003c06 ; undefined
 48c:	003c0304 	.inst	0x003c0304 ; NYI
 490:	2e040402 	.inst	0x2e040402 ; undefined
 494:	02040200 	.inst	0x02040200 ; undefined
 498:	0402002e 	.inst	0x0402002e ; undefined
 49c:	10052008 	adr	x8, a89c <bss_end+0x954c>
 4a0:	08040200 	stxrb	w4, w0, [x16]
 4a4:	18052e06 	ldr	w6, aa64 <bss_end+0x9714>
 4a8:	08040200 	stxrb	w4, w0, [x16]
 4ac:	0013053c 	.inst	0x0013053c ; undefined
 4b0:	2e080402 	.inst	0x2e080402 ; undefined
 4b4:	03210d05 	.inst	0x03210d05 ; undefined
 4b8:	08053c7a 	stxrb	w5, w26, [x3]
 4bc:	053c0903 	ext	z3.b, z3.b, z8.b, #226
 4c0:	053f2f05 	tbx	z5.b, z24.b, z31.b
 4c4:	0c054b08 	.inst	0x0c054b08 ; undefined
 4c8:	0f053d3d 	.inst	0x0f053d3d ; undefined
 4cc:	3005053c 	adr	x28, a571 <bss_end+0x9221>
 4d0:	08053f59 	stxrb	w5, w25, [x26]
 4d4:	0011052f 	.inst	0x0011052f ; undefined
 4d8:	3c010402 	str	b2, [x0], #16
 4dc:	053d1205 	ext	z5.b, z5.b, z16.b, #236
 4e0:	16053d0d 	b	fffffffff814f914 <bss_end+0xfffffffff814e5c4>
 4e4:	01040200 	.inst	0x01040200 ; undefined
 4e8:	0d053d3c 	.inst	0x0d053d3c ; undefined
 4ec:	0016053d 	.inst	0x0016053d ; undefined
 4f0:	3c010402 	str	b2, [x0], #16
 4f4:	3d11053d 	str	b29, [x9, #1089]
 4f8:	31210505 	adds	w5, w8, #0x841
 4fc:	05670b05 	ext	z5.b, {z24.b-z25.b}, #58
 500:	0b053d09 	add	w9, w8, w5, lsl #15
 504:	210c0522 	.inst	0x210c0522 ; undefined
 508:	054b1005 	.inst	0x054b1005 ; undefined
 50c:	0e053c0c 	umov	w12, v0.b[2]
 510:	3c0b053d 	str	b29, [x9], #176
 514:	052b1305 	ext	z5.b, z5.b, z24.b, #92
 518:	0402001b 	.inst	0x0402001b ; undefined
 51c:	19053c01 	.inst	0x19053c01 ; undefined
 520:	2409054b 	cmphs	p11.b, p1/z, z10.b, z9.b
 524:	053d0a05 	ext	z5.b, z5.b, z16.b, #234
 528:	05053d0c 	.inst	0x05053d0c ; undefined
 52c:	0a053121 	and	w1, w9, w5, lsl #12
 530:	04020075 	.inst	0x04020075 ; undefined
 534:	003c0601 	.inst	0x003c0601 ; NYI
 538:	2e020402 	.inst	0x2e020402 ; undefined
 53c:	04040200 	.inst	0x04040200 ; undefined
 540:	060b0520 	.inst	0x060b0520 ; undefined
 544:	0a052f22 	and	w2, w25, w5, lsl #11
 548:	3b0e0521 	.inst	0x3b0e0521 ; undefined
 54c:	053c0c05 	ext	z5.b, z5.b, z0.b, #227
 550:	02002011 	.inst	0x02002011 ; undefined
 554:	2e060104 	ext	v4.8b, v8.8b, v6.8b, #0
 558:	3e060b05 	.inst	0x3e060b05 ; undefined
 55c:	05210905 	ext	z5.b, z5.b, z8.b, #10
 560:	1005490d 	adr	x13, ae80 <bss_end+0x9b30>
 564:	300b053c 	adr	x28, 16609 <bss_end+0x152b9>
 568:	05210905 	ext	z5.b, z5.b, z8.b, #10
 56c:	0f054914 	.inst	0x0f054914 ; undefined
 570:	2e0c053c 	.inst	0x2e0c053c ; undefined
 574:	4d3e0505 	.inst	0x4d3e0505 ; undefined
 578:	057a0b05 	ext	z5.b, {z24.b-z25.b}, #210
 57c:	0d05210c 	.inst	0x0d05210c ; undefined
 580:	5a12053d 	.inst	0x5a12053d ; undefined
 584:	05241105 	ext	z5.b, z5.b, z8.b, #36
 588:	0f052115 	.inst	0x0f052115 ; undefined
 58c:	2f10053c 	ushr	v28.4h, v9.4h, #16
 590:	053d1905 	ext	z5.b, z5.b, z8.b, #238
 594:	052f3c13 	.inst	0x052f3c13 ; undefined
 598:	19053010 	stlurb	w16, [x0, #83]
 59c:	01040200 	.inst	0x01040200 ; undefined
 5a0:	3d14053c 	str	b28, [x9, #1281]
 5a4:	058a0d05 	.inst	0x058a0d05 ; undefined
 5a8:	08290315 	.inst	0x08290315 ; undefined
 5ac:	206003ba 	.inst	0x206003ba ; undefined
 5b0:	01040200 	.inst	0x01040200 ; undefined
 5b4:	064a0806 	.inst	0x064a0806 ; undefined
 5b8:	00288359 	.inst	0x00288359 ; NYI
 5bc:	06010402 	.inst	0x06010402 ; undefined
 5c0:	2f064a08 	.inst	0x2f064a08 ; undefined
 5c4:	02002883 	.inst	0x02002883 ; undefined
 5c8:	08060104 	stxrb	w6, w4, [x8]
 5cc:	83ad064a 	.inst	0x83ad064a ; undefined
 5d0:	05222605 	dupq	z5.s, z16.s[0]
 5d4:	04020015 	.inst	0x04020015 ; undefined
 5d8:	594a0801 	ldiapp	x1, x10, [x0], #16
 5dc:	04020022 	.inst	0x04020022 ; undefined
 5e0:	58080601 	ldr	x1, 106a0 <bss_end+0xf350>
 5e4:	4c226706 	.inst	0x4c226706 ; undefined
 5e8:	05204003 	zip1	p3.b, p0.b, p0.b
 5ec:	0c053c0f 	.inst	0x0c053c0f ; undefined
 5f0:	0305052e 	.inst	0x0305052e ; undefined
 5f4:	053c00c4 	ext	z4.b, z4.b, z6.b, #224
 5f8:	04020015 	.inst	0x04020015 ; undefined
 5fc:	20550301 	.inst	0x20550301 ; undefined
 600:	2c030505 	stnp	s5, s1, [x8, #24]
 604:	10054e20 	adr	x0, afc8 <bss_end+0x9c78>
 608:	05054b3d 	.inst	0x05054b3d ; undefined
 60c:	91a03f4b 	addg	x11, x26, #0x200, #0xf
 610:	053f2208 	mov	z8.b, z16.b[15]
 614:	14053d07 	b	14fa30 <bss_end+0x14e6e0>
 618:	3c17052e 	str	b14, [x9], #-144
 61c:	412f0505 	.inst	0x412f0505 ; undefined
 620:	3ed791a0 	.inst	0x3ed791a0 ; undefined
 624:	01000302 	.inst	0x01000302 ; undefined
 628:	00005301 	udf	#21249
 62c:	08000500 	stxrb	w0, w0, [x8]
 630:	00002e00 	udf	#11776
 634:	01010400 	.inst	0x01010400 ; undefined
 638:	000d0efb 	.inst	0x000d0efb ; undefined
 63c:	01010101 	.inst	0x01010101 ; undefined
 640:	01000000 	.inst	0x01000000 ; undefined
 644:	01010000 	.inst	0x01010000 ; undefined
 648:	0b021f01 	add	w1, w24, w2, lsl #7
 64c:	5c000000 	ldr	d0, 64c <pl011_send_string+0x48>
 650:	02000000 	.inst	0x02000000 ; undefined
 654:	0f021f01 	.inst	0x0f021f01 ; undefined
 658:	00012802 	.inst	0x00012802 ; undefined
 65c:	01280100 	.inst	0x01280100 ; undefined
 660:	00010000 	.inst	0x00010000 ; undefined
 664:	00000209 	udf	#521
 668:	00000000 	udf	#0
 66c:	21180000 	.inst	0x21180000 ; undefined
 670:	21232121 	.inst	0x21232121 ; undefined
 674:	21222121 	.inst	0x21222121 ; undefined
 678:	02212321 	.inst	0x02212321 ; undefined
 67c:	01010001 	.inst	0x01010001 ; undefined
 680:	0000004c 	udf	#76
 684:	00080005 	.inst	0x00080005 ; undefined
 688:	0000002e 	udf	#46
 68c:	fb010104 	.inst	0xfb010104 ; undefined
 690:	01000d0e 	.inst	0x01000d0e ; undefined
 694:	00010101 	.inst	0x00010101 ; undefined
 698:	00010000 	.inst	0x00010000 ; undefined
 69c:	01010100 	.inst	0x01010100 ; undefined
 6a0:	000b021f 	.inst	0x000b021f ; undefined
 6a4:	005c0000 	.inst	0x005c0000 ; undefined
 6a8:	01020000 	.inst	0x01020000 ; undefined
 6ac:	020f021f 	.inst	0x020f021f ; undefined
 6b0:	0000012f 	udf	#303
 6b4:	00012f01 	.inst	0x00012f01 ; undefined
 6b8:	09000100 	.inst	0x09000100 ; undefined
 6bc:	000fbc02 	.inst	0x000fbc02 ; undefined
 6c0:	00000000 	udf	#0
 6c4:	01090300 	.inst	0x01090300 ; undefined
 6c8:	02212121 	.inst	0x02212121 ; undefined
 6cc:	01010001 	.inst	0x01010001 ; undefined
 6d0:	00000052 	udf	#82
 6d4:	00080005 	.inst	0x00080005 ; undefined
 6d8:	0000002e 	udf	#46
 6dc:	fb010104 	.inst	0xfb010104 ; undefined
 6e0:	01000d0e 	.inst	0x01000d0e ; undefined
 6e4:	00010101 	.inst	0x00010101 ; undefined
 6e8:	00010000 	.inst	0x00010000 ; undefined
 6ec:	01010100 	.inst	0x01010100 ; undefined
 6f0:	000b021f 	.inst	0x000b021f ; undefined
 6f4:	005c0000 	.inst	0x005c0000 ; undefined
 6f8:	01020000 	.inst	0x01020000 ; undefined
 6fc:	020f021f 	.inst	0x020f021f ; undefined
 700:	00000134 	udf	#308
 704:	00013401 	.inst	0x00013401 ; undefined
 708:	09000100 	.inst	0x09000100 ; undefined
 70c:	000fcc02 	.inst	0x000fcc02 ; undefined
 710:	00000000 	udf	#0
 714:	21211600 	.inst	0x21211600 ; undefined
 718:	21272127 	.inst	0x21272127 ; undefined
 71c:	21200a03 	.inst	0x21200a03 ; undefined
 720:	00010221 	.inst	0x00010221 ; undefined
 724:	Address 0x724 is out of bounds.


Disassembly of section .debug_str:

0000000000000000 <.debug_str>:
   0:	33676572 	.inst	0x33676572 ; undefined
   4:	65660032 	fmla	z18.h, p0/m, z1.h, z6.h
   8:	7465645f 	.inst	0x7465645f ; undefined
   c:	5f746365 	.inst	0x5f746365 ; undefined
  10:	62616e65 	.inst	0x62616e65 ; undefined
  14:	7200656c 	ands	w12, w11, #0x3ffffff
  18:	72657365 	.inst	0x72657365 ; undefined
  1c:	00646576 	.inst	0x00646576 ; undefined
  20:	6f697067 	fcmla	v7.8h, v3.8h, v9.h[1], #270
  24:	6e69705f 	uabdl2	v31.4s, v2.8h, v9.8h
  28:	7465735f 	.inst	0x7465735f ; undefined
  2c:	6e75665f 	umax	v31.8h, v18.8h, v21.8h
  30:	69750063 	ldpsw	x3, x0, [x3, #-88]
  34:	3436746e 	cbz	w14, 6cec0 <bss_end+0x6bb70>
  38:	6100745f 	.inst	0x6100745f ; undefined
  3c:	636e7973 	.inst	0x636e7973 ; undefined
  40:	5f65725f 	sqdmlsl	s31, h18, v5.h[2]
  44:	62616e65 	.inst	0x62616e65 ; undefined
  48:	6600656c 	.inst	0x6600656c ; undefined
  4c:	5f636e75 	.inst	0x5f636e75 ; undefined
  50:	656c6573 	fnmls	z19.h, p1/m, z11.h, z12.h
  54:	64007463 	.inst	0x64007463 ; undefined
  58:	00617461 	.inst	0x00617461 ; undefined
  5c:	616c6564 	.inst	0x616c6564 ; undefined
  60:	70670079 	adr	x25, ce06f <bss_end+0xccd1f>
  64:	705f6f69 	adr	x9, bee53 <bss_end+0xbdb03>
  68:	655f6e69 	fcmeq	p9.h, p3/z, z19.h, z31.h
  6c:	6c62616e 	ldnp	d14, d24, [x11, #-480]
  70:	6e750065 	uaddl2	v5.4s, v3.8h, v21.8h
  74:	6e676973 	.inst	0x6e676973 ; undefined
  78:	63206465 	.inst	0x63206465 ; undefined
  7c:	00726168 	.inst	0x00726168 ; undefined
  80:	6e494647 	.inst	0x6e494647 ; undefined
  84:	00747570 	.inst	0x00747570 ; undefined
  88:	676e6f6c 	.inst	0x676e6f6c ; undefined
  8c:	736e7520 	.inst	0x736e7520 ; undefined
  90:	656e6769 	fnmls	z9.h, p1/m, z27.h, z14.h
  94:	6e692064 	usubl2	v4.4s, v3.8h, v9.8h
  98:	68730074 	.inst	0x68730074 ; undefined
  9c:	2074726f 	.inst	0x2074726f ; undefined
  a0:	69736e75 	ldpsw	x21, x27, [x19, #-104]
  a4:	64656e67 	.inst	0x64656e67 ; undefined
  a8:	746e6920 	.inst	0x746e6920 ; undefined
  ac:	55504700 	.inst	0x55504700 ; undefined
  b0:	75505f44 	.inst	0x75505f44 ; undefined
  b4:	6f446c6c 	.inst	0x6f446c6c ; undefined
  b8:	5f006e77 	.inst	0x5f006e77 ; undefined
  bc:	6f697047 	fcmla	v7.8h, v2.8h, v9.h[1], #270
  c0:	636e7546 	.inst	0x636e7546 ; undefined
  c4:	5f6f6c00 	.inst	0x5f6f6c00 ; undefined
  c8:	65746564 	fnmls	z4.h, p1/m, z11.h, z20.h
  cc:	655f7463 	fcmeq	p3.h, p5/z, z3.h, z31.h
  d0:	6c62616e 	ldnp	d14, d24, [x11, #-480]
  d4:	69680065 	ldpsw	x5, x0, [x3, #-192]
  d8:	7465645f 	.inst	0x7465645f ; undefined
  dc:	5f746365 	.inst	0x5f746365 ; undefined
  e0:	62616e65 	.inst	0x62616e65 ; undefined
  e4:	4700656c 	.inst	0x4700656c ; undefined
  e8:	746c4146 	.inst	0x746c4146 ; undefined
  ec:	75700030 	.inst	0x75700030 ; undefined
  f0:	655f6470 	fcmne	p0.h, p1/z, z3.h, z31.h
  f4:	6c62616e 	ldnp	d14, d24, [x11, #-480]
  f8:	46470065 	.inst	0x46470065 ; undefined
  fc:	32746c41 	.inst	0x32746c41 ; undefined
 100:	41464700 	.inst	0x41464700 ; undefined
 104:	0033746c 	.inst	0x0033746c ; NYI
 108:	6c414647 	ldnp	d7, d17, [x18, #16]
 10c:	47003474 	.inst	0x47003474 ; undefined
 110:	746c4146 	.inst	0x746c4146 ; undefined
 114:	70470035 	adr	x21, 8e11b <bss_end+0x8cdcb>
 118:	69506f69 	ldpsw	x9, x27, [x27, #128]
 11c:	7461446e 	.inst	0x7461446e ; undefined
 120:	69750061 	ldpsw	x1, x0, [x3, #-88]
 124:	5f38746e 	sqshl	s14, s3, #24
 128:	475f0074 	.inst	0x475f0074 ; undefined
 12c:	506f6970 	adr	x16, dee5a <bss_end+0xddb0a>
 130:	70004455 	adr	x21, 9bb <putchw+0x97>
 134:	5f647075 	sqdmlsl	s21, h3, v4.h[2]
 138:	62616e65 	.inst	0x62616e65 ; undefined
 13c:	635f656c 	.inst	0x635f656c ; undefined
 140:	6b636f6c 	.inst	0x6b636f6c ; undefined
 144:	73610073 	.inst	0x73610073 ; undefined
 148:	5f636e79 	.inst	0x5f636e79 ; undefined
 14c:	655f6566 	fcmeq	p6.h, p1/z, z11.h, z31.h
 150:	6c62616e 	ldnp	d14, d24, [x11, #-480]
 154:	46470065 	.inst	0x46470065 ; undefined
 158:	31746c41 	adds	w1, w2, #0xd1b, lsl #12
 15c:	6e697000 	uabdl2	v0.4s, v0.8h, v9.8h
 160:	626d754e 	.inst	0x626d754e ; undefined
 164:	47007265 	.inst	0x47007265 ; undefined
 168:	5f445550 	shl	d16, d10, #4
 16c:	6c6c7550 	ldnp	d16, d29, [x10, #-320]
 170:	6c007055 	stnp	d21, d28, [x2]
 174:	6c657665 	ldnp	d5, d29, [x19, #-432]
 178:	5f657200 	sqdmlsl	s0, h16, v5.h[2]
 17c:	65746564 	fnmls	z4.h, p1/m, z11.h, z20.h
 180:	655f7463 	fcmeq	p3.h, p5/z, z3.h, z31.h
 184:	6c62616e 	ldnp	d14, d24, [x11, #-480]
 188:	4e470065 	.inst	0x4e470065 ; undefined
 18c:	31432055 	adds	w21, w2, #0xc8, lsl #12
 190:	34312037 	cbz	w23, 62594 <bss_end+0x61244>
 194:	302e312e 	adr	x14, 5c7b9 <bss_end+0x5b469>
 198:	676d2d20 	.inst	0x676d2d20 ; undefined
 19c:	72656e65 	.inst	0x72656e65 ; undefined
 1a0:	722d6c61 	ands	w1, w3, #0xfff87fff
 1a4:	2d736765 	ldp	s5, s25, [x27, #-104]
 1a8:	796c6e6f 	ldrh	w15, [x19, #5686]
 1ac:	6c6d2d20 	ldnp	d0, d11, [x9, #-304]
 1b0:	6c747469 	ldnp	d9, d29, [x3, #-192]
 1b4:	6e652d65 	uqsub	v5.8h, v11.8h, v5.8h
 1b8:	6e616964 	fcvtxn2	v4.4s, v11.2d
 1bc:	616d2d20 	.inst	0x616d2d20 ; undefined
 1c0:	6c3d6962 	stnp	d2, d26, [x11, #-48]
 1c4:	20343670 	.inst	0x20343670 ; undefined
 1c8:	2d20672d 	stp	s13, s25, [x25, #-256]
 1cc:	65726666 	fnmls	z6.h, p1/m, z19.h, z18.h
 1d0:	61747365 	.inst	0x61747365 ; undefined
 1d4:	6e69646e 	umax	v14.8h, v3.8h, v9.8h
 1d8:	68730067 	.inst	0x68730067 ; undefined
 1dc:	2074726f 	.inst	0x2074726f ; undefined
 1e0:	00746e69 	.inst	0x00746e69 ; undefined
 1e4:	7074756f 	adr	x15, e9093 <bss_end+0xe7d43>
 1e8:	735f7475 	.inst	0x735f7475 ; undefined
 1ec:	73007465 	.inst	0x73007465 ; undefined
 1f0:	63656c65 	.inst	0x63656c65 ; undefined
 1f4:	00726f74 	.inst	0x00726f74 ; undefined
 1f8:	645f7665 	fcmla	z5.h, p5/m, z19.h, z31.h, #270
 1fc:	63657465 	.inst	0x63657465 ; undefined
 200:	74735f74 	.inst	0x74735f74 ; undefined
 204:	73757461 	.inst	0x73757461 ; undefined
 208:	69704700 	ldpsw	x0, x17, [x24, #-128]
 20c:	6765526f 	.inst	0x6765526f ; undefined
 210:	69750073 	ldpsw	x19, x0, [x3, #-88]
 214:	3233746e 	orr	w14, w3, #0xffffe7ff
 218:	6c00745f 	stnp	d31, d29, [x2]
 21c:	20676e6f 	.inst	0x20676e6f ; undefined
 220:	00746e69 	.inst	0x00746e69 ; undefined
 224:	44555047 	smlslb	z7.h, z2.b, z21.b
 228:	66664f5f 	.inst	0x66664f5f ; undefined
 22c:	74756f00 	.inst	0x74756f00 ; undefined
 230:	5f747570 	sqshl	d16, d11, #52
 234:	61656c63 	.inst	0x61656c63 ; undefined
 238:	46470072 	.inst	0x46470072 ; undefined
 23c:	7074754f 	adr	x15, e90e7 <bss_end+0xe7d97>
 240:	62007475 	.inst	0x62007475 ; undefined
 244:	74537469 	.inst	0x74537469 ; undefined
 248:	00747261 	.inst	0x00747261 ; undefined
 24c:	6872636c 	.inst	0x6872636c ; undefined
 250:	72737200 	.inst	0x72737200 ; undefined
 254:	00726365 	.inst	0x00726365 ; undefined
 258:	64726269 	.inst	0x64726269 ; undefined
 25c:	72656b00 	.inst	0x72656b00 ; undefined
 260:	5f6c656e 	.inst	0x5f6c656e ; undefined
 264:	6e69616d 	rsubhn2	v13.8h, v11.4s, v9.4s
 268:	5f787400 	sqshl	d0, d0, #56
 26c:	006e6970 	.inst	0x006e6970 ; undefined
 270:	705f7872 	adr	x18, bf17f <bss_end+0xbde2f>
 274:	67006e69 	.inst	0x67006e69 ; undefined
 278:	5f6f6970 	.inst	0x5f6f6970 ; undefined
 27c:	636e7566 	.inst	0x636e7566 ; undefined
 280:	73657200 	.inst	0x73657200 ; undefined
 284:	65767265 	fnmls	z5.h, p4/m, z19.h, z22.h
 288:	72003164 	ands	w4, w11, #0x1fff
 28c:	72657365 	.inst	0x72657365 ; undefined
 290:	32646576 	.inst	0x32646576 ; undefined
 294:	306c7000 	adr	x0, d9095 <bss_end+0xd7d45>
 298:	725f3131 	.inst	0x725f3131 ; undefined
 29c:	00766365 	.inst	0x00766365 ; undefined
 2a0:	74696e69 	.inst	0x74696e69 ; undefined
 2a4:	6972705f 	ldpsw	xzr, x28, [x2, #-112]
 2a8:	0066746e 	.inst	0x0066746e ; undefined
 2ac:	31306c70 	adds	w16, w3, #0xc1b
 2b0:	65725f31 	fnmla	z17.h, p7/m, z25.h, z18.h
 2b4:	70007367 	adr	x7, 1123 <get_el+0x13b>
 2b8:	00637475 	.inst	0x00637475 ; undefined
 2bc:	31306c70 	adds	w16, w3, #0xc1b
 2c0:	65735f31 	fnmla	z17.h, p7/m, z25.h, z19.h
 2c4:	6600646e 	.inst	0x6600646e ; undefined
 2c8:	00647262 	.inst	0x00647262 ; undefined
 2cc:	31306c70 	adds	w16, w3, #0xc1b
 2d0:	6e695f31 	uqrshl	v17.8h, v25.8h, v9.8h
 2d4:	70007469 	adr	x9, 1163 <get_el+0x17b>
 2d8:	3131306c 	adds	w12, w3, #0xc4c
 2dc:	7261755f 	.inst	0x7261755f ; undefined
 2e0:	61750074 	.inst	0x61750074 ; undefined
 2e4:	00307472 	.inst	0x00307472 ; NYI
 2e8:	74726175 	.inst	0x74726175 ; undefined
 2ec:	6c690035 	ldnp	d21, d0, [x1, #-368]
 2f0:	67007270 	.inst	0x67007270 ; undefined
 2f4:	655f7465 	fcmeq	p5.h, p5/z, z3.h, z31.h
 2f8:	6674006c 	.inst	0x6674006c ; undefined
 2fc:	72705f70 	.inst	0x72705f70 ; undefined
 300:	66746e69 	.inst	0x66746e69 ; undefined
 304:	72617500 	.inst	0x72617500 ; undefined
 308:	6e695f74 	uqrshl	v20.8h, v27.8h, v9.8h
 30c:	6d007469 	stp	d9, d29, [x3]
 310:	61625f75 	.inst	0x61625f75 ; undefined
 314:	725f6475 	.inst	0x725f6475 ; undefined
 318:	00657461 	.inst	0x00657461 ; undefined
 31c:	695f756d 	ldpsw	x13, x29, [x11, #248]
 320:	7541006f 	.inst	0x7541006f ; undefined
 324:	67655278 	.inst	0x67655278 ; undefined
 328:	756d0073 	.inst	0x756d0073 ; undefined
 32c:	6174735f 	.inst	0x6174735f ; undefined
 330:	00737574 	.inst	0x00737574 ; undefined
 334:	735f756d 	.inst	0x735f756d ; undefined
 338:	74617263 	.inst	0x74617263 ; undefined
 33c:	65006863 	.inst	0x65006863 ; undefined
 340:	6c62616e 	ldnp	d14, d24, [x11, #-480]
 344:	75007365 	.inst	0x75007365 ; undefined
 348:	5f747261 	sqdmlsl	s1, h19, v4.h[3]
 34c:	646e6573 	.inst	0x646e6573 ; undefined
 350:	5f756d00 	.inst	0x5f756d00 ; undefined
 354:	00726569 	.inst	0x00726569 ; undefined
 358:	6d5f756d 	ldp	d13, d29, [x11, #496]
 35c:	6d007263 	stp	d3, d28, [x19]
 360:	69695f75 	ldpsw	x21, x23, [x27, #-184]
 364:	79730072 	ldrh	w18, [x3, #6528]
 368:	6b6c6373 	.inst	0x6b6c6373 ; undefined
 36c:	5f756d00 	.inst	0x5f756d00 ; undefined
 370:	0072636c 	.inst	0x0072636c ; undefined
 374:	5f717269 	sqdmlsl	s9, h19, v1.h[3]
 378:	74617473 	.inst	0x74617473 ; undefined
 37c:	62007375 	.inst	0x62007375 ; undefined
 380:	72647561 	.inst	0x72647561 ; undefined
 384:	00657461 	.inst	0x00657461 ; undefined
 388:	6d5f756d 	ldp	d13, d29, [x11, #496]
 38c:	63007273 	.inst	0x63007273 ; undefined
 390:	5f636c61 	.inst	0x5f636c61 ; undefined
 394:	725f7262 	.inst	0x725f7262 ; undefined
 398:	75006765 	.inst	0x75006765 ; undefined
 39c:	5f747261 	sqdmlsl	s1, h19, v4.h[3]
 3a0:	76636572 	.inst	0x76636572 ; undefined
 3a4:	5f756d00 	.inst	0x5f756d00 ; undefined
 3a8:	746e6f63 	.inst	0x746e6f63 ; undefined
 3ac:	006c6f72 	.inst	0x006c6f72 ; undefined
 3b0:	74726175 	.inst	0x74726175 ; undefined
 3b4:	6e65735f 	uabdl2	v31.4s, v26.8h, v5.8h
 3b8:	74735f64 	.inst	0x74735f64 ; undefined
 3bc:	676e6972 	.inst	0x676e6972 ; undefined
 3c0:	5f756d00 	.inst	0x5f756d00 ; undefined
 3c4:	0072736c 	.inst	0x0072736c ; undefined
 3c8:	31304c50 	adds	w16, w2, #0xc13
 3cc:	4c575f31 	.inst	0x4c575f31 ; undefined
 3d0:	70004e45 	adr	x5, d9b <tfp_format+0x397>
 3d4:	3131306c 	adds	w12, w3, #0xc4c
 3d8:	6e65735f 	uabdl2	v31.4s, v26.8h, v5.8h
 3dc:	74735f64 	.inst	0x74735f64 ; undefined
 3e0:	676e6972 	.inst	0x676e6972 ; undefined
 3e4:	304c5000 	adr	x0, 98de5 <bss_end+0x97a95>
 3e8:	575f3131 	.inst	0x575f3131 ; undefined
 3ec:	5f4e454c 	.inst	0x5f4e454c ; undefined
 3f0:	72620036 	.inst	0x72620036 ; undefined
 3f4:	63735f64 	.inst	0x63735f64 ; undefined
 3f8:	64656c61 	.inst	0x64656c61 ; undefined
 3fc:	304c5000 	adr	x0, 98dfd <bss_end+0x97aad>
 400:	575f3131 	.inst	0x575f3131 ; undefined
 404:	5f4e454c 	.inst	0x5f4e454c ; undefined
 408:	4c500035 	.inst	0x4c500035 ; undefined
 40c:	5f313130 	.inst	0x5f313130 ; undefined
 410:	4e454c57 	.inst	0x4e454c57 ; undefined
 414:	5000375f 	adr	xzr, afe <tfp_format+0xfa>
 418:	3131304c 	adds	w12, w2, #0xc4c
 41c:	454c575f 	ssubwt	z31.h, z26.h, z12.b
 420:	00385f4e 	.inst	0x00385f4e ; NYI
 424:	31306c70 	adds	w16, w3, #0xc1b
 428:	65735f31 	fnmla	z17.h, p7/m, z25.h, z19.h
 42c:	72625f74 	.inst	0x72625f74 ; undefined
 430:	64747300 	.inst	0x64747300 ; undefined
 434:	5f74756f 	sqshl	d15, d11, #52
 438:	70747570 	adr	x16, e92e7 <bss_end+0xe7f97>
 43c:	675f5f00 	.inst	0x675f5f00 ; undefined
 440:	6f745f72 	.inst	0x6f745f72 ; undefined
 444:	66740070 	.inst	0x66740070 ; undefined
 448:	6f665f70 	.inst	0x6f665f70 ; undefined
 44c:	74616d72 	.inst	0x74616d72 ; undefined
 450:	675f5f00 	.inst	0x675f5f00 ; undefined
 454:	5f63756e 	sqshl	d14, d11, #35
 458:	6c5f6176 	ldnp	d22, d24, [x11, #496]
 45c:	00747369 	.inst	0x00747369 ; undefined
 460:	63747570 	.inst	0x63747570 ; undefined
 464:	75700066 	.inst	0x75700066 ; undefined
 468:	00706374 	.inst	0x00706374 ; undefined
 46c:	5f706674 	.inst	0x5f706674 ; undefined
 470:	69727073 	ldpsw	x19, x28, [x3, #-112]
 474:	0066746e 	.inst	0x0066746e ; undefined
 478:	72675f5f 	.inst	0x72675f5f ; undefined
 47c:	66666f5f 	.inst	0x66666f5f ; undefined
 480:	61620073 	.inst	0x61620073 ; undefined
 484:	64006573 	.inst	0x64006573 ; undefined
 488:	74696769 	.inst	0x74696769 ; undefined
 48c:	765f5f00 	.inst	0x765f5f00 ; undefined
 490:	696c5f61 	ldpsw	x1, x23, [x27, #-160]
 494:	5f007473 	.inst	0x5f007473 ; undefined
 498:	5f72765f 	sqshl	d31, d18, #50
 49c:	7366666f 	.inst	0x7366666f ; undefined
 4a0:	6d756e00 	ldp	d0, d27, [x16, #-176]
 4a4:	5f5f0070 	.inst	0x5f5f0070 ; undefined
 4a8:	745f7276 	.inst	0x745f7276 ; undefined
 4ac:	6100706f 	.inst	0x6100706f ; undefined
 4b0:	74726f62 	.inst	0x74726f62 ; undefined
 4b4:	64747300 	.inst	0x64747300 ; undefined
 4b8:	5f74756f 	sqshl	d15, d11, #52
 4bc:	66747570 	.inst	0x66747570 ; undefined
 4c0:	32697500 	.inst	0x32697500 ; undefined
 4c4:	5f5f0061 	.inst	0x5f5f0061 ; undefined
 4c8:	63617473 	.inst	0x63617473 ; undefined
 4cc:	7570006b 	.inst	0x7570006b ; undefined
 4d0:	77686374 	.inst	0x77686374 ; undefined
 4d4:	63727300 	.inst	0x63727300 ; undefined
 4d8:	6f6f622f 	umlsl2	v15.4s, v17.8h, v15.h[2]
 4dc:	00532e74 	.inst	0x00532e74 ; undefined
 4e0:	6d6f682f 	ldp	d15, d26, [x1, #-272]
 4e4:	6d7a2f65 	ldp	d5, d11, [x27, #-96]
 4e8:	6e4f2f70 	facge	v16.8h, v27.8h, v15.8h
 4ec:	69724465 	ldpsw	x5, x17, [x3, #-112]
 4f0:	555f6576 	.inst	0x555f6576 ; undefined
 4f4:	6f442f4d 	.inst	0x6f442f4d ; undefined
 4f8:	656d7563 	fnmls	z3.h, p5/m, z11.h, z13.h
 4fc:	2f73746e 	.inst	0x2f73746e ; undefined
 500:	676f7250 	.inst	0x676f7250 ; undefined
 504:	6d6d6172 	ldp	d18, d24, [x11, #-304]
 508:	2f676e69 	.inst	0x2f676e69 ; undefined
 50c:	64726148 	.inst	0x64726148 ; undefined
 510:	65726177 	fnmls	z23.h, p0/m, z11.h, z18.h
 514:	7361522f 	.inst	0x7361522f ; undefined
 518:	72656270 	.inst	0x72656270 ; undefined
 51c:	69507972 	ldpsw	x18, x30, [x11, #128]
 520:	7261622f 	.inst	0x7261622f ; undefined
 524:	74656d65 	.inst	0x74656d65 ; undefined
 528:	722f6c61 	ands	w1, w3, #0xfffe1fff
 52c:	736f6970 	.inst	0x736f6970 ; undefined
 530:	554e4700 	.inst	0x554e4700 ; undefined
 534:	20534120 	.inst	0x20534120 ; undefined
 538:	32342e32 	orr	w18, w17, #0xfff000
 53c:	63727300 	.inst	0x63727300 ; undefined
 540:	2e6d6d2f 	umin	v15.4h, v9.4h, v13.4h
 544:	72730053 	.inst	0x72730053 ; undefined
 548:	74752f63 	.inst	0x74752f63 ; undefined
 54c:	2e736c69 	umin	v9.4h, v3.4h, v19.4h
 550:	Address 0x550 is out of bounds.


Disassembly of section .debug_line_str:

0000000000000000 <.debug_line_str>:
   0:	2f637273 	fcmla	v19.4h, v19.4h, v3.h[1], #270
   4:	6f697067 	fcmla	v7.8h, v3.8h, v9.h[1], #270
   8:	2f00632e 	.inst	0x2f00632e ; undefined
   c:	656d6f68 	fnmls	z8.h, p3/m, z27.h, z13.h
  10:	706d7a2f 	adr	x15, daf57 <bss_end+0xd9c07>
  14:	656e4f2f 	fnmla	z15.h, p3/m, z25.h, z14.h
  18:	76697244 	.inst	0x76697244 ; undefined
  1c:	4d555f65 	.inst	0x4d555f65 ; undefined
  20:	636f442f 	.inst	0x636f442f ; undefined
  24:	6e656d75 	umin	v21.8h, v11.8h, v5.8h
  28:	502f7374 	adr	x20, 5ee96 <bss_end+0x5db46>
  2c:	72676f72 	.inst	0x72676f72 ; undefined
  30:	696d6d61 	ldpsw	x1, x27, [x11, #-152]
  34:	482f676e 	.inst	0x482f676e ; undefined
  38:	77647261 	.inst	0x77647261 ; undefined
  3c:	2f657261 	fcmla	v1.4h, v19.4h, v5.h[1], #270
  40:	70736152 	adr	x18, e6c6b <bss_end+0xe591b>
  44:	72726562 	.inst	0x72726562 ; undefined
  48:	2f695079 	fcmla	v25.4h, v3.4h, v9.h[1], #180
  4c:	65726162 	fnmls	z2.h, p0/m, z11.h, z18.h
  50:	6174656d 	.inst	0x6174656d ; undefined
  54:	70722f6c 	adr	x12, e4643 <bss_end+0xe32f3>
  58:	00736f69 	.inst	0x00736f69 ; undefined
  5c:	00637273 	.inst	0x00637273 ; undefined
  60:	7273752f 	.inst	0x7273752f ; undefined
  64:	62696c2f 	.inst	0x62696c2f ; undefined
  68:	6363672f 	.inst	0x6363672f ; undefined
  6c:	7261612f 	.inst	0x7261612f ; undefined
  70:	34366863 	cbz	w3, 6cd7c <bss_end+0x6ba2c>
  74:	6e696c2d 	umin	v13.8h, v1.8h, v9.8h
  78:	672d7875 	.inst	0x672d7875 ; undefined
  7c:	312f756e 	adds	w14, w11, #0xbdd
  80:	2e312e34 	uqsub	v20.8b, v17.8b, v17.8b
  84:	6e692f30 	uqsub	v16.8h, v25.8h, v9.8h
  88:	64756c63 	.inst	0x64756c63 ; undefined
  8c:	6e690065 	uaddl2	v5.4s, v3.8h, v9.8h
  90:	64756c63 	.inst	0x64756c63 ; undefined
  94:	65702f65 	fmls	z5.h, p3/m, z27.h, z16.h
  98:	68706972 	.inst	0x68706972 ; undefined
  9c:	6c617265 	ldnp	d5, d28, [x19, #-496]
  a0:	74730073 	.inst	0x74730073 ; undefined
  a4:	746e6964 	.inst	0x746e6964 ; undefined
  a8:	6363672d 	.inst	0x6363672d ; undefined
  ac:	6300682e 	.inst	0x6300682e ; undefined
  b0:	6f6d6d6f 	.inst	0x6f6d6d6f ; undefined
  b4:	00682e6e 	.inst	0x00682e6e ; undefined
  b8:	6f697067 	fcmla	v7.8h, v3.8h, v9.h[1], #270
  bc:	7500682e 	.inst	0x7500682e ; undefined
  c0:	736c6974 	.inst	0x736c6974 ; undefined
  c4:	7300682e 	.inst	0x7300682e ; undefined
  c8:	6b2f6372 	subs	w18, w27, w15, uxtx
  cc:	656e7265 	fnmls	z5.h, p4/m, z19.h, z14.h
  d0:	00632e6c 	.inst	0x00632e6c ; undefined
  d4:	31306c70 	adds	w16, w3, #0xc1b
  d8:	00682e31 	.inst	0x00682e31 ; undefined
  dc:	6e697270 	uabdl2	v16.4s, v19.8h, v9.8h
  e0:	682e6674 	.inst	0x682e6674 ; undefined
  e4:	63727300 	.inst	0x63727300 ; undefined
  e8:	6e696d2f 	umin	v15.8h, v9.8h, v9.8h
  ec:	61755f69 	.inst	0x61755f69 ; undefined
  f0:	632e7472 	.inst	0x632e7472 ; undefined
  f4:	78756100 	ldumaxlh	w21, w0, [x8]
  f8:	7300682e 	.inst	0x7300682e ; undefined
  fc:	702f6372 	adr	x18, 5ed6b <bss_end+0x5da1b>
 100:	3131306c 	adds	w12, w3, #0xc4c
 104:	7300632e 	.inst	0x7300632e ; undefined
 108:	702f6372 	adr	x18, 5ed77 <bss_end+0x5da27>
 10c:	746e6972 	.inst	0x746e6972 ; undefined
 110:	00632e66 	.inst	0x00632e66 ; undefined
 114:	61647473 	.inst	0x61647473 ; undefined
 118:	682e6772 	.inst	0x682e6772 ; undefined
 11c:	75623c00 	.inst	0x75623c00 ; undefined
 120:	2d746c69 	ldp	s9, s27, [x3, #-96]
 124:	003e6e69 	.inst	0x003e6e69 ; NYI
 128:	746f6f62 	.inst	0x746f6f62 ; undefined
 12c:	6d00532e 	stp	d14, d20, [x25]
 130:	00532e6d 	.inst	0x00532e6d ; undefined
 134:	6c697475 	ldnp	d21, d29, [x3, #-368]
 138:	00532e73 	.inst	0x00532e73 ; undefined

Disassembly of section .comment:

0000000000000000 <.comment>:
   0:	3a434347 	ccmn	w26, w3, #0x7, mi	// mi = first
   4:	4e472820 	trn1	v0.8h, v1.8h, v7.8h
   8:	31202955 	adds	w21, w10, #0x80a
   c:	2e312e34 	uqsub	v20.8b, v17.8b, v17.8b
  10:	Address 0x10 is out of bounds.


Disassembly of section .debug_rnglists:

0000000000000000 <.debug_rnglists>:
   0:	00000013 	udf	#19
   4:	00080005 	.inst	0x00080005 ; undefined
   8:	00000000 	udf	#0
   c:	e807d004 	.inst	0xe807d004 ; undefined
  10:	0f8c040e 	.inst	0x0f8c040e ; undefined
  14:	Address 0x14 is out of bounds.

