
build/kernel8.elf:     file format elf64-littleaarch64


Disassembly of section .text.boot:

0000000000000000 <_start>:
   0:	d53800a0 	mrs	x0, mpidr_el1
   4:	92401c00 	and	x0, x0, #0xff
   8:	b4000040 	cbz	x0, 10 <master>
   c:	14000008 	b	2c <proc_hang>

0000000000000010 <master>:
  10:	10009980 	adr	x0, 1340 <stdout_putf>
  14:	100099e1 	adr	x1, 1350 <bss_end>
  18:	cb000021 	sub	x1, x1, x0
  1c:	940003e8 	bl	fbc <memzero>
  20:	b27303ff 	mov	sp, #0x2000                	// #8192
  24:	94000069 	bl	1c8 <kernel_main>
  28:	14000001 	b	2c <proc_hang>

000000000000002c <proc_hang>:
  2c:	d503205f 	wfe
  30:	17ffffff 	b	2c <proc_hang>

Disassembly of section .text:

0000000000000034 <gpio_pin_set_func>:
  34:	d10083ff 	sub	sp, sp, #0x20
  38:	39003fe0 	strb	w0, [sp, #15]
  3c:	b9000be1 	str	w1, [sp, #8]
  40:	39403fe1 	ldrb	w1, [sp, #15]
  44:	2a0103e0 	mov	w0, w1
  48:	531f7800 	lsl	w0, w0, #1
  4c:	0b010000 	add	w0, w0, w1
  50:	528003c1 	mov	w1, #0x1e                  	// #30
  54:	1ac10c02 	sdiv	w2, w0, w1
  58:	528003c1 	mov	w1, #0x1e                  	// #30
  5c:	1b017c41 	mul	w1, w2, w1
  60:	4b010000 	sub	w0, w0, w1
  64:	39007fe0 	strb	w0, [sp, #31]
  68:	39403fe1 	ldrb	w1, [sp, #15]
  6c:	529999a0 	mov	w0, #0xcccd                	// #52429
  70:	72b99980 	movk	w0, #0xcccc, lsl #16
  74:	9ba07c20 	umull	x0, w1, w0
  78:	d360fc00 	lsr	x0, x0, #32
  7c:	53037c00 	lsr	w0, w0, #3
  80:	39007be0 	strb	w0, [sp, #30]
  84:	d2bfc400 	mov	x0, #0xfe200000            	// #4263510016
  88:	39407be1 	ldrb	w1, [sp, #30]
  8c:	93407c21 	sxtw	x1, w1
  90:	b8617800 	ldr	w0, [x0, x1, lsl #2]
  94:	b9001be0 	str	w0, [sp, #24]
  98:	39407fe0 	ldrb	w0, [sp, #31]
  9c:	528000e1 	mov	w1, #0x7                   	// #7
  a0:	1ac02020 	lsl	w0, w1, w0
  a4:	2a2003e0 	mvn	w0, w0
  a8:	2a0003e1 	mov	w1, w0
  ac:	b9401be0 	ldr	w0, [sp, #24]
  b0:	0a010000 	and	w0, w0, w1
  b4:	b9001be0 	str	w0, [sp, #24]
  b8:	39407fe0 	ldrb	w0, [sp, #31]
  bc:	b9400be1 	ldr	w1, [sp, #8]
  c0:	1ac02020 	lsl	w0, w1, w0
  c4:	b9401be1 	ldr	w1, [sp, #24]
  c8:	2a000020 	orr	w0, w1, w0
  cc:	b9001be0 	str	w0, [sp, #24]
  d0:	d2bfc400 	mov	x0, #0xfe200000            	// #4263510016
  d4:	39407be1 	ldrb	w1, [sp, #30]
  d8:	93407c21 	sxtw	x1, w1
  dc:	b9401be2 	ldr	w2, [sp, #24]
  e0:	b8217802 	str	w2, [x0, x1, lsl #2]
  e4:	d503201f 	nop
  e8:	910083ff 	add	sp, sp, #0x20
  ec:	d65f03c0 	ret

00000000000000f0 <gpio_pin_enable>:
  f0:	a9be7bfd 	stp	x29, x30, [sp, #-32]!
  f4:	910003fd 	mov	x29, sp
  f8:	39007fe0 	strb	w0, [sp, #31]
  fc:	d2bfc400 	mov	x0, #0xfe200000            	// #4263510016
 100:	b900941f 	str	wzr, [x0, #148]
 104:	d28012c0 	mov	x0, #0x96                  	// #150
 108:	940003b1 	bl	fcc <delay>
 10c:	39407fe0 	ldrb	w0, [sp, #31]
 110:	12001000 	and	w0, w0, #0x1f
 114:	52800021 	mov	w1, #0x1                   	// #1
 118:	1ac02022 	lsl	w2, w1, w0
 11c:	d2bfc401 	mov	x1, #0xfe200000            	// #4263510016
 120:	39407fe0 	ldrb	w0, [sp, #31]
 124:	53057c00 	lsr	w0, w0, #5
 128:	12001c00 	and	w0, w0, #0xff
 12c:	93407c00 	sxtw	x0, w0
 130:	91009000 	add	x0, x0, #0x24
 134:	d37ef400 	lsl	x0, x0, #2
 138:	8b000020 	add	x0, x1, x0
 13c:	b9000802 	str	w2, [x0, #8]
 140:	d28012c0 	mov	x0, #0x96                  	// #150
 144:	940003a2 	bl	fcc <delay>
 148:	d2bfc400 	mov	x0, #0xfe200000            	// #4263510016
 14c:	b900941f 	str	wzr, [x0, #148]
 150:	d2bfc401 	mov	x1, #0xfe200000            	// #4263510016
 154:	39407fe0 	ldrb	w0, [sp, #31]
 158:	53057c00 	lsr	w0, w0, #5
 15c:	12001c00 	and	w0, w0, #0xff
 160:	93407c00 	sxtw	x0, w0
 164:	91009000 	add	x0, x0, #0x24
 168:	d37ef400 	lsl	x0, x0, #2
 16c:	8b000020 	add	x0, x1, x0
 170:	b900081f 	str	wzr, [x0, #8]
 174:	d503201f 	nop
 178:	a8c27bfd 	ldp	x29, x30, [sp], #32
 17c:	d65f03c0 	ret

0000000000000180 <putc>:
 180:	a9bd7bfd 	stp	x29, x30, [sp, #-48]!
 184:	910003fd 	mov	x29, sp
 188:	f9000fe0 	str	x0, [sp, #24]
 18c:	39005fe1 	strb	w1, [sp, #23]
 190:	f9400fe0 	ldr	x0, [sp, #24]
 194:	f90017e0 	str	x0, [sp, #40]
 198:	39405fe0 	ldrb	w0, [sp, #23]
 19c:	7100281f 	cmp	w0, #0xa
 1a0:	54000081 	b.ne	1b0 <putc+0x30>  // b.any
 1a4:	528001a1 	mov	w1, #0xd                   	// #13
 1a8:	f94017e0 	ldr	x0, [sp, #40]
 1ac:	940000f6 	bl	584 <pl011_send>
 1b0:	39405fe1 	ldrb	w1, [sp, #23]
 1b4:	f94017e0 	ldr	x0, [sp, #40]
 1b8:	940000f3 	bl	584 <pl011_send>
 1bc:	d503201f 	nop
 1c0:	a8c37bfd 	ldp	x29, x30, [sp], #48
 1c4:	d65f03c0 	ret

00000000000001c8 <kernel_main>:
 1c8:	a9be7bfd 	stp	x29, x30, [sp, #-32]!
 1cc:	910003fd 	mov	x29, sp
 1d0:	b0000000 	adrp	x0, 1000 <get_el+0x18>
 1d4:	910c8000 	add	x0, x0, #0x320
 1d8:	f9000fe0 	str	x0, [sp, #24]
 1dc:	52984001 	mov	w1, #0xc200                	// #49664
 1e0:	72a00021 	movk	w1, #0x1, lsl #16
 1e4:	f9400fe0 	ldr	x0, [sp, #24]
 1e8:	940000b6 	bl	4c0 <pl011_init>
 1ec:	90000000 	adrp	x0, 0 <_start>
 1f0:	91060001 	add	x1, x0, #0x180
 1f4:	f9400fe0 	ldr	x0, [sp, #24]
 1f8:	94000307 	bl	e14 <init_printf>
 1fc:	b0000000 	adrp	x0, 1000 <get_el+0x18>
 200:	910c8000 	add	x0, x0, #0x320
 204:	f9400000 	ldr	x0, [x0]
 208:	aa0003e1 	mov	x1, x0
 20c:	90000000 	adrp	x0, 0 <_start>
 210:	913fe000 	add	x0, x0, #0xff8
 214:	9400030e 	bl	e4c <tfp_printf>
 218:	d2820001 	mov	x1, #0x1000                	// #4096
 21c:	f2bfc401 	movk	x1, #0xfe20, lsl #16
 220:	b0000000 	adrp	x0, 1000 <get_el+0x18>
 224:	91004000 	add	x0, x0, #0x10
 228:	94000309 	bl	e4c <tfp_printf>
 22c:	b0000000 	adrp	x0, 1000 <get_el+0x18>
 230:	91008000 	add	x0, x0, #0x20
 234:	94000306 	bl	e4c <tfp_printf>
 238:	b0000000 	adrp	x0, 1000 <get_el+0x18>
 23c:	91010000 	add	x0, x0, #0x40
 240:	94000303 	bl	e4c <tfp_printf>
 244:	94000369 	bl	fe8 <get_el>
 248:	2a0003e1 	mov	w1, w0
 24c:	b0000000 	adrp	x0, 1000 <get_el+0x18>
 250:	91014000 	add	x0, x0, #0x50
 254:	940002fe 	bl	e4c <tfp_printf>
 258:	f9400fe0 	ldr	x0, [sp, #24]
 25c:	940000db 	bl	5c8 <pl011_recv>
 260:	12001c00 	and	w0, w0, #0xff
 264:	2a0003e1 	mov	w1, w0
 268:	f9400fe0 	ldr	x0, [sp, #24]
 26c:	940000c6 	bl	584 <pl011_send>
 270:	17fffffa 	b	258 <kernel_main+0x90>

0000000000000274 <calc_br_reg>:
 274:	d10043ff 	sub	sp, sp, #0x10
 278:	b9000fe0 	str	w0, [sp, #12]
 27c:	b9000be1 	str	w1, [sp, #8]
 280:	b9400be0 	ldr	w0, [sp, #8]
 284:	531d7000 	lsl	w0, w0, #3
 288:	b9400fe1 	ldr	w1, [sp, #12]
 28c:	1ac00820 	udiv	w0, w1, w0
 290:	51000400 	sub	w0, w0, #0x1
 294:	910043ff 	add	sp, sp, #0x10
 298:	d65f03c0 	ret

000000000000029c <uart_init>:
 29c:	a9be7bfd 	stp	x29, x30, [sp, #-32]!
 2a0:	910003fd 	mov	x29, sp
 2a4:	f9000bf3 	str	x19, [sp, #16]
 2a8:	52800041 	mov	w1, #0x2                   	// #2
 2ac:	528001c0 	mov	w0, #0xe                   	// #14
 2b0:	97ffff61 	bl	34 <gpio_pin_set_func>
 2b4:	52800041 	mov	w1, #0x2                   	// #2
 2b8:	528001e0 	mov	w0, #0xf                   	// #15
 2bc:	97ffff5e 	bl	34 <gpio_pin_set_func>
 2c0:	528001c0 	mov	w0, #0xe                   	// #14
 2c4:	97ffff8b 	bl	f0 <gpio_pin_enable>
 2c8:	528001e0 	mov	w0, #0xf                   	// #15
 2cc:	97ffff89 	bl	f0 <gpio_pin_enable>
 2d0:	d28a0000 	mov	x0, #0x5000                	// #20480
 2d4:	f2bfc420 	movk	x0, #0xfe21, lsl #16
 2d8:	52800021 	mov	w1, #0x1                   	// #1
 2dc:	b9000401 	str	w1, [x0, #4]
 2e0:	d28a0000 	mov	x0, #0x5000                	// #20480
 2e4:	f2bfc420 	movk	x0, #0xfe21, lsl #16
 2e8:	b900601f 	str	wzr, [x0, #96]
 2ec:	d28a0000 	mov	x0, #0x5000                	// #20480
 2f0:	f2bfc420 	movk	x0, #0xfe21, lsl #16
 2f4:	b900441f 	str	wzr, [x0, #68]
 2f8:	d28a0000 	mov	x0, #0x5000                	// #20480
 2fc:	f2bfc420 	movk	x0, #0xfe21, lsl #16
 300:	52800061 	mov	w1, #0x3                   	// #3
 304:	b9004c01 	str	w1, [x0, #76]
 308:	d28a0000 	mov	x0, #0x5000                	// #20480
 30c:	f2bfc420 	movk	x0, #0xfe21, lsl #16
 310:	b900501f 	str	wzr, [x0, #80]
 314:	d28a0013 	mov	x19, #0x5000                	// #20480
 318:	f2bfc433 	movk	x19, #0xfe21, lsl #16
 31c:	52984001 	mov	w1, #0xc200                	// #49664
 320:	72a00021 	movk	w1, #0x1, lsl #16
 324:	528ca000 	mov	w0, #0x6500                	// #25856
 328:	72a3b9a0 	movk	w0, #0x1dcd, lsl #16
 32c:	97ffffd2 	bl	274 <calc_br_reg>
 330:	b9006a60 	str	w0, [x19, #104]
 334:	d28a0000 	mov	x0, #0x5000                	// #20480
 338:	f2bfc420 	movk	x0, #0xfe21, lsl #16
 33c:	52800061 	mov	w1, #0x3                   	// #3
 340:	b9006001 	str	w1, [x0, #96]
 344:	528001a0 	mov	w0, #0xd                   	// #13
 348:	94000009 	bl	36c <uart_send>
 34c:	52800140 	mov	w0, #0xa                   	// #10
 350:	94000007 	bl	36c <uart_send>
 354:	52800140 	mov	w0, #0xa                   	// #10
 358:	94000005 	bl	36c <uart_send>
 35c:	d503201f 	nop
 360:	f9400bf3 	ldr	x19, [sp, #16]
 364:	a8c27bfd 	ldp	x29, x30, [sp], #32
 368:	d65f03c0 	ret

000000000000036c <uart_send>:
 36c:	d10043ff 	sub	sp, sp, #0x10
 370:	39003fe0 	strb	w0, [sp, #15]
 374:	d503201f 	nop
 378:	d28a0000 	mov	x0, #0x5000                	// #20480
 37c:	f2bfc420 	movk	x0, #0xfe21, lsl #16
 380:	b9405400 	ldr	w0, [x0, #84]
 384:	121b0000 	and	w0, w0, #0x20
 388:	7100001f 	cmp	w0, #0x0
 38c:	54ffff60 	b.eq	378 <uart_send+0xc>  // b.none
 390:	d28a0000 	mov	x0, #0x5000                	// #20480
 394:	f2bfc420 	movk	x0, #0xfe21, lsl #16
 398:	39403fe1 	ldrb	w1, [sp, #15]
 39c:	b9004001 	str	w1, [x0, #64]
 3a0:	d503201f 	nop
 3a4:	910043ff 	add	sp, sp, #0x10
 3a8:	d65f03c0 	ret

00000000000003ac <uart_recv>:
 3ac:	d503201f 	nop
 3b0:	d28a0000 	mov	x0, #0x5000                	// #20480
 3b4:	f2bfc420 	movk	x0, #0xfe21, lsl #16
 3b8:	b9405400 	ldr	w0, [x0, #84]
 3bc:	12000000 	and	w0, w0, #0x1
 3c0:	7100001f 	cmp	w0, #0x0
 3c4:	54ffff60 	b.eq	3b0 <uart_recv+0x4>  // b.none
 3c8:	d28a0000 	mov	x0, #0x5000                	// #20480
 3cc:	f2bfc420 	movk	x0, #0xfe21, lsl #16
 3d0:	b9404000 	ldr	w0, [x0, #64]
 3d4:	12001c00 	and	w0, w0, #0xff
 3d8:	d65f03c0 	ret

00000000000003dc <uart_send_string>:
 3dc:	a9be7bfd 	stp	x29, x30, [sp, #-32]!
 3e0:	910003fd 	mov	x29, sp
 3e4:	f9000fe0 	str	x0, [sp, #24]
 3e8:	1400000d 	b	41c <uart_send_string+0x40>
 3ec:	f9400fe0 	ldr	x0, [sp, #24]
 3f0:	39400000 	ldrb	w0, [x0]
 3f4:	7100281f 	cmp	w0, #0xa
 3f8:	54000061 	b.ne	404 <uart_send_string+0x28>  // b.any
 3fc:	528001a0 	mov	w0, #0xd                   	// #13
 400:	97ffffdb 	bl	36c <uart_send>
 404:	f9400fe0 	ldr	x0, [sp, #24]
 408:	39400000 	ldrb	w0, [x0]
 40c:	97ffffd8 	bl	36c <uart_send>
 410:	f9400fe0 	ldr	x0, [sp, #24]
 414:	91000400 	add	x0, x0, #0x1
 418:	f9000fe0 	str	x0, [sp, #24]
 41c:	f9400fe0 	ldr	x0, [sp, #24]
 420:	39400000 	ldrb	w0, [x0]
 424:	7100001f 	cmp	w0, #0x0
 428:	54fffe21 	b.ne	3ec <uart_send_string+0x10>  // b.any
 42c:	d503201f 	nop
 430:	d503201f 	nop
 434:	a8c27bfd 	ldp	x29, x30, [sp], #32
 438:	d65f03c0 	ret

000000000000043c <pl011_set_br>:
 43c:	d10083ff 	sub	sp, sp, #0x20
 440:	f90007e0 	str	x0, [sp, #8]
 444:	b90007e1 	str	w1, [sp, #4]
 448:	b94007e0 	ldr	w0, [sp, #4]
 44c:	7100001f 	cmp	w0, #0x0
 450:	54000320 	b.eq	4b4 <pl011_set_br+0x78>  // b.none
 454:	f94007e0 	ldr	x0, [sp, #8]
 458:	f9400000 	ldr	x0, [x0]
 45c:	b900301f 	str	wzr, [x0, #48]
 460:	b94007e0 	ldr	w0, [sp, #4]
 464:	53017c00 	lsr	w0, w0, #1
 468:	2a0003e1 	mov	w1, w0
 46c:	d2960000 	mov	x0, #0xb000                	// #45056
 470:	f2a16e20 	movk	x0, #0xb71, lsl #16
 474:	8b000021 	add	x1, x1, x0
 478:	b94007e0 	ldr	w0, [sp, #4]
 47c:	9ac00820 	udiv	x0, x1, x0
 480:	f9000fe0 	str	x0, [sp, #24]
 484:	f9400fe0 	ldr	x0, [sp, #24]
 488:	d346fc01 	lsr	x1, x0, #6
 48c:	f94007e0 	ldr	x0, [sp, #8]
 490:	f9400000 	ldr	x0, [x0]
 494:	b9002401 	str	w1, [x0, #36]
 498:	f9400fe0 	ldr	x0, [sp, #24]
 49c:	2a0003e1 	mov	w1, w0
 4a0:	f94007e0 	ldr	x0, [sp, #8]
 4a4:	f9400000 	ldr	x0, [x0]
 4a8:	12001421 	and	w1, w1, #0x3f
 4ac:	b9002801 	str	w1, [x0, #40]
 4b0:	14000002 	b	4b8 <pl011_set_br+0x7c>
 4b4:	d503201f 	nop
 4b8:	910083ff 	add	sp, sp, #0x20
 4bc:	d65f03c0 	ret

00000000000004c0 <pl011_init>:
 4c0:	a9be7bfd 	stp	x29, x30, [sp, #-32]!
 4c4:	910003fd 	mov	x29, sp
 4c8:	f9000fe0 	str	x0, [sp, #24]
 4cc:	b90017e1 	str	w1, [sp, #20]
 4d0:	f9400fe0 	ldr	x0, [sp, #24]
 4d4:	39402002 	ldrb	w2, [x0, #8]
 4d8:	f9400fe0 	ldr	x0, [sp, #24]
 4dc:	b9400c00 	ldr	w0, [x0, #12]
 4e0:	2a0003e1 	mov	w1, w0
 4e4:	2a0203e0 	mov	w0, w2
 4e8:	97fffed3 	bl	34 <gpio_pin_set_func>
 4ec:	f9400fe0 	ldr	x0, [sp, #24]
 4f0:	39402402 	ldrb	w2, [x0, #9]
 4f4:	f9400fe0 	ldr	x0, [sp, #24]
 4f8:	b9400c00 	ldr	w0, [x0, #12]
 4fc:	2a0003e1 	mov	w1, w0
 500:	2a0203e0 	mov	w0, w2
 504:	97fffecc 	bl	34 <gpio_pin_set_func>
 508:	f9400fe0 	ldr	x0, [sp, #24]
 50c:	39402000 	ldrb	w0, [x0, #8]
 510:	97fffef8 	bl	f0 <gpio_pin_enable>
 514:	f9400fe0 	ldr	x0, [sp, #24]
 518:	39402400 	ldrb	w0, [x0, #9]
 51c:	97fffef5 	bl	f0 <gpio_pin_enable>
 520:	f9400fe0 	ldr	x0, [sp, #24]
 524:	f9400000 	ldr	x0, [x0]
 528:	f100001f 	cmp	x0, #0x0
 52c:	540000a1 	b.ne	540 <pl011_init+0x80>  // b.any
 530:	f9400fe0 	ldr	x0, [sp, #24]
 534:	d2820001 	mov	x1, #0x1000                	// #4096
 538:	f2bfc401 	movk	x1, #0xfe20, lsl #16
 53c:	f9000001 	str	x1, [x0]
 540:	b94017e1 	ldr	w1, [sp, #20]
 544:	f9400fe0 	ldr	x0, [sp, #24]
 548:	97ffffbd 	bl	43c <pl011_set_br>
 54c:	f9400fe0 	ldr	x0, [sp, #24]
 550:	f9400000 	ldr	x0, [x0]
 554:	b9402c01 	ldr	w1, [x0, #44]
 558:	f9400fe0 	ldr	x0, [sp, #24]
 55c:	f9400000 	ldr	x0, [x0]
 560:	321b0421 	orr	w1, w1, #0x60
 564:	b9002c01 	str	w1, [x0, #44]
 568:	f9400fe0 	ldr	x0, [sp, #24]
 56c:	f9400000 	ldr	x0, [x0]
 570:	52806021 	mov	w1, #0x301                 	// #769
 574:	b9003001 	str	w1, [x0, #48]
 578:	d503201f 	nop
 57c:	a8c27bfd 	ldp	x29, x30, [sp], #32
 580:	d65f03c0 	ret

0000000000000584 <pl011_send>:
 584:	d10043ff 	sub	sp, sp, #0x10
 588:	f90007e0 	str	x0, [sp, #8]
 58c:	39001fe1 	strb	w1, [sp, #7]
 590:	d503201f 	nop
 594:	f94007e0 	ldr	x0, [sp, #8]
 598:	f9400000 	ldr	x0, [x0]
 59c:	b9401800 	ldr	w0, [x0, #24]
 5a0:	121b0000 	and	w0, w0, #0x20
 5a4:	7100001f 	cmp	w0, #0x0
 5a8:	54ffff61 	b.ne	594 <pl011_send+0x10>  // b.any
 5ac:	f94007e0 	ldr	x0, [sp, #8]
 5b0:	f9400000 	ldr	x0, [x0]
 5b4:	39401fe1 	ldrb	w1, [sp, #7]
 5b8:	b9000001 	str	w1, [x0]
 5bc:	d503201f 	nop
 5c0:	910043ff 	add	sp, sp, #0x10
 5c4:	d65f03c0 	ret

00000000000005c8 <pl011_recv>:
 5c8:	d10043ff 	sub	sp, sp, #0x10
 5cc:	f90007e0 	str	x0, [sp, #8]
 5d0:	d503201f 	nop
 5d4:	f94007e0 	ldr	x0, [sp, #8]
 5d8:	f9400000 	ldr	x0, [x0]
 5dc:	b9401800 	ldr	w0, [x0, #24]
 5e0:	121c0000 	and	w0, w0, #0x10
 5e4:	7100001f 	cmp	w0, #0x0
 5e8:	54ffff61 	b.ne	5d4 <pl011_recv+0xc>  // b.any
 5ec:	f94007e0 	ldr	x0, [sp, #8]
 5f0:	f9400000 	ldr	x0, [x0]
 5f4:	b9400000 	ldr	w0, [x0]
 5f8:	12001c00 	and	w0, w0, #0xff
 5fc:	910043ff 	add	sp, sp, #0x10
 600:	d65f03c0 	ret

0000000000000604 <pl011_send_string>:
 604:	a9be7bfd 	stp	x29, x30, [sp, #-32]!
 608:	910003fd 	mov	x29, sp
 60c:	f9000fe0 	str	x0, [sp, #24]
 610:	f9000be1 	str	x1, [sp, #16]
 614:	14000010 	b	654 <pl011_send_string+0x50>
 618:	f9400be0 	ldr	x0, [sp, #16]
 61c:	39400000 	ldrb	w0, [x0]
 620:	7100281f 	cmp	w0, #0xa
 624:	54000081 	b.ne	634 <pl011_send_string+0x30>  // b.any
 628:	528001a1 	mov	w1, #0xd                   	// #13
 62c:	f9400fe0 	ldr	x0, [sp, #24]
 630:	97ffffd5 	bl	584 <pl011_send>
 634:	f9400be0 	ldr	x0, [sp, #16]
 638:	39400000 	ldrb	w0, [x0]
 63c:	2a0003e1 	mov	w1, w0
 640:	f9400fe0 	ldr	x0, [sp, #24]
 644:	97ffffd0 	bl	584 <pl011_send>
 648:	f9400be0 	ldr	x0, [sp, #16]
 64c:	91000400 	add	x0, x0, #0x1
 650:	f9000be0 	str	x0, [sp, #16]
 654:	f9400be0 	ldr	x0, [sp, #16]
 658:	39400000 	ldrb	w0, [x0]
 65c:	7100001f 	cmp	w0, #0x0
 660:	54fffdc1 	b.ne	618 <pl011_send_string+0x14>  // b.any
 664:	d503201f 	nop
 668:	d503201f 	nop
 66c:	a8c27bfd 	ldp	x29, x30, [sp], #32
 670:	d65f03c0 	ret

0000000000000674 <ui2a>:
 674:	d100c3ff 	sub	sp, sp, #0x30
 678:	b9001fe0 	str	w0, [sp, #28]
 67c:	b9001be1 	str	w1, [sp, #24]
 680:	b90017e2 	str	w2, [sp, #20]
 684:	f90007e3 	str	x3, [sp, #8]
 688:	b9002fff 	str	wzr, [sp, #44]
 68c:	52800020 	mov	w0, #0x1                   	// #1
 690:	b9002be0 	str	w0, [sp, #40]
 694:	14000005 	b	6a8 <ui2a+0x34>
 698:	b9402be1 	ldr	w1, [sp, #40]
 69c:	b9401be0 	ldr	w0, [sp, #24]
 6a0:	1b007c20 	mul	w0, w1, w0
 6a4:	b9002be0 	str	w0, [sp, #40]
 6a8:	b9401fe1 	ldr	w1, [sp, #28]
 6ac:	b9402be0 	ldr	w0, [sp, #40]
 6b0:	1ac00820 	udiv	w0, w1, w0
 6b4:	b9401be1 	ldr	w1, [sp, #24]
 6b8:	6b00003f 	cmp	w1, w0
 6bc:	54fffee9 	b.ls	698 <ui2a+0x24>  // b.plast
 6c0:	1400002f 	b	77c <ui2a+0x108>
 6c4:	b9401fe1 	ldr	w1, [sp, #28]
 6c8:	b9402be0 	ldr	w0, [sp, #40]
 6cc:	1ac00820 	udiv	w0, w1, w0
 6d0:	b90027e0 	str	w0, [sp, #36]
 6d4:	b9401fe0 	ldr	w0, [sp, #28]
 6d8:	b9402be1 	ldr	w1, [sp, #40]
 6dc:	1ac10802 	udiv	w2, w0, w1
 6e0:	b9402be1 	ldr	w1, [sp, #40]
 6e4:	1b017c41 	mul	w1, w2, w1
 6e8:	4b010000 	sub	w0, w0, w1
 6ec:	b9001fe0 	str	w0, [sp, #28]
 6f0:	b9402be1 	ldr	w1, [sp, #40]
 6f4:	b9401be0 	ldr	w0, [sp, #24]
 6f8:	1ac00820 	udiv	w0, w1, w0
 6fc:	b9002be0 	str	w0, [sp, #40]
 700:	b9402fe0 	ldr	w0, [sp, #44]
 704:	7100001f 	cmp	w0, #0x0
 708:	540000e1 	b.ne	724 <ui2a+0xb0>  // b.any
 70c:	b94027e0 	ldr	w0, [sp, #36]
 710:	7100001f 	cmp	w0, #0x0
 714:	5400008c 	b.gt	724 <ui2a+0xb0>
 718:	b9402be0 	ldr	w0, [sp, #40]
 71c:	7100001f 	cmp	w0, #0x0
 720:	540002e1 	b.ne	77c <ui2a+0x108>  // b.any
 724:	b94027e0 	ldr	w0, [sp, #36]
 728:	7100241f 	cmp	w0, #0x9
 72c:	5400010d 	b.le	74c <ui2a+0xd8>
 730:	b94017e0 	ldr	w0, [sp, #20]
 734:	7100001f 	cmp	w0, #0x0
 738:	54000060 	b.eq	744 <ui2a+0xd0>  // b.none
 73c:	528006e0 	mov	w0, #0x37                  	// #55
 740:	14000004 	b	750 <ui2a+0xdc>
 744:	52800ae0 	mov	w0, #0x57                  	// #87
 748:	14000002 	b	750 <ui2a+0xdc>
 74c:	52800600 	mov	w0, #0x30                  	// #48
 750:	b94027e1 	ldr	w1, [sp, #36]
 754:	12001c22 	and	w2, w1, #0xff
 758:	f94007e1 	ldr	x1, [sp, #8]
 75c:	91000423 	add	x3, x1, #0x1
 760:	f90007e3 	str	x3, [sp, #8]
 764:	0b020000 	add	w0, w0, w2
 768:	12001c00 	and	w0, w0, #0xff
 76c:	39000020 	strb	w0, [x1]
 770:	b9402fe0 	ldr	w0, [sp, #44]
 774:	11000400 	add	w0, w0, #0x1
 778:	b9002fe0 	str	w0, [sp, #44]
 77c:	b9402be0 	ldr	w0, [sp, #40]
 780:	7100001f 	cmp	w0, #0x0
 784:	54fffa01 	b.ne	6c4 <ui2a+0x50>  // b.any
 788:	f94007e0 	ldr	x0, [sp, #8]
 78c:	3900001f 	strb	wzr, [x0]
 790:	d503201f 	nop
 794:	9100c3ff 	add	sp, sp, #0x30
 798:	d65f03c0 	ret

000000000000079c <i2a>:
 79c:	a9be7bfd 	stp	x29, x30, [sp, #-32]!
 7a0:	910003fd 	mov	x29, sp
 7a4:	b9001fe0 	str	w0, [sp, #28]
 7a8:	f9000be1 	str	x1, [sp, #16]
 7ac:	b9401fe0 	ldr	w0, [sp, #28]
 7b0:	7100001f 	cmp	w0, #0x0
 7b4:	5400012a 	b.ge	7d8 <i2a+0x3c>  // b.tcont
 7b8:	b9401fe0 	ldr	w0, [sp, #28]
 7bc:	4b0003e0 	neg	w0, w0
 7c0:	b9001fe0 	str	w0, [sp, #28]
 7c4:	f9400be0 	ldr	x0, [sp, #16]
 7c8:	91000401 	add	x1, x0, #0x1
 7cc:	f9000be1 	str	x1, [sp, #16]
 7d0:	528005a1 	mov	w1, #0x2d                  	// #45
 7d4:	39000001 	strb	w1, [x0]
 7d8:	b9401fe0 	ldr	w0, [sp, #28]
 7dc:	f9400be3 	ldr	x3, [sp, #16]
 7e0:	52800002 	mov	w2, #0x0                   	// #0
 7e4:	52800141 	mov	w1, #0xa                   	// #10
 7e8:	97ffffa3 	bl	674 <ui2a>
 7ec:	d503201f 	nop
 7f0:	a8c27bfd 	ldp	x29, x30, [sp], #32
 7f4:	d65f03c0 	ret

00000000000007f8 <a2d>:
 7f8:	d10043ff 	sub	sp, sp, #0x10
 7fc:	39003fe0 	strb	w0, [sp, #15]
 800:	39403fe0 	ldrb	w0, [sp, #15]
 804:	7100bc1f 	cmp	w0, #0x2f
 808:	540000e9 	b.ls	824 <a2d+0x2c>  // b.plast
 80c:	39403fe0 	ldrb	w0, [sp, #15]
 810:	7100e41f 	cmp	w0, #0x39
 814:	54000088 	b.hi	824 <a2d+0x2c>  // b.pmore
 818:	39403fe0 	ldrb	w0, [sp, #15]
 81c:	5100c000 	sub	w0, w0, #0x30
 820:	14000014 	b	870 <a2d+0x78>
 824:	39403fe0 	ldrb	w0, [sp, #15]
 828:	7101801f 	cmp	w0, #0x60
 82c:	540000e9 	b.ls	848 <a2d+0x50>  // b.plast
 830:	39403fe0 	ldrb	w0, [sp, #15]
 834:	7101981f 	cmp	w0, #0x66
 838:	54000088 	b.hi	848 <a2d+0x50>  // b.pmore
 83c:	39403fe0 	ldrb	w0, [sp, #15]
 840:	51015c00 	sub	w0, w0, #0x57
 844:	1400000b 	b	870 <a2d+0x78>
 848:	39403fe0 	ldrb	w0, [sp, #15]
 84c:	7101001f 	cmp	w0, #0x40
 850:	540000e9 	b.ls	86c <a2d+0x74>  // b.plast
 854:	39403fe0 	ldrb	w0, [sp, #15]
 858:	7101181f 	cmp	w0, #0x46
 85c:	54000088 	b.hi	86c <a2d+0x74>  // b.pmore
 860:	39403fe0 	ldrb	w0, [sp, #15]
 864:	5100dc00 	sub	w0, w0, #0x37
 868:	14000002 	b	870 <a2d+0x78>
 86c:	12800000 	mov	w0, #0xffffffff            	// #-1
 870:	910043ff 	add	sp, sp, #0x10
 874:	d65f03c0 	ret

0000000000000878 <a2i>:
 878:	a9bc7bfd 	stp	x29, x30, [sp, #-64]!
 87c:	910003fd 	mov	x29, sp
 880:	3900bfe0 	strb	w0, [sp, #47]
 884:	f90013e1 	str	x1, [sp, #32]
 888:	b9002be2 	str	w2, [sp, #40]
 88c:	f9000fe3 	str	x3, [sp, #24]
 890:	f94013e0 	ldr	x0, [sp, #32]
 894:	f9400000 	ldr	x0, [x0]
 898:	f9001fe0 	str	x0, [sp, #56]
 89c:	b90037ff 	str	wzr, [sp, #52]
 8a0:	14000010 	b	8e0 <a2i+0x68>
 8a4:	b94033e1 	ldr	w1, [sp, #48]
 8a8:	b9402be0 	ldr	w0, [sp, #40]
 8ac:	6b00003f 	cmp	w1, w0
 8b0:	5400026c 	b.gt	8fc <a2i+0x84>
 8b4:	b94037e1 	ldr	w1, [sp, #52]
 8b8:	b9402be0 	ldr	w0, [sp, #40]
 8bc:	1b007c20 	mul	w0, w1, w0
 8c0:	b94033e1 	ldr	w1, [sp, #48]
 8c4:	0b000020 	add	w0, w1, w0
 8c8:	b90037e0 	str	w0, [sp, #52]
 8cc:	f9401fe0 	ldr	x0, [sp, #56]
 8d0:	91000401 	add	x1, x0, #0x1
 8d4:	f9001fe1 	str	x1, [sp, #56]
 8d8:	39400000 	ldrb	w0, [x0]
 8dc:	3900bfe0 	strb	w0, [sp, #47]
 8e0:	3940bfe0 	ldrb	w0, [sp, #47]
 8e4:	97ffffc5 	bl	7f8 <a2d>
 8e8:	b90033e0 	str	w0, [sp, #48]
 8ec:	b94033e0 	ldr	w0, [sp, #48]
 8f0:	7100001f 	cmp	w0, #0x0
 8f4:	54fffd8a 	b.ge	8a4 <a2i+0x2c>  // b.tcont
 8f8:	14000002 	b	900 <a2i+0x88>
 8fc:	d503201f 	nop
 900:	f94013e0 	ldr	x0, [sp, #32]
 904:	f9401fe1 	ldr	x1, [sp, #56]
 908:	f9000001 	str	x1, [x0]
 90c:	f9400fe0 	ldr	x0, [sp, #24]
 910:	b94037e1 	ldr	w1, [sp, #52]
 914:	b9000001 	str	w1, [x0]
 918:	3940bfe0 	ldrb	w0, [sp, #47]
 91c:	a8c47bfd 	ldp	x29, x30, [sp], #64
 920:	d65f03c0 	ret

0000000000000924 <putchw>:
 924:	a9bc7bfd 	stp	x29, x30, [sp, #-64]!
 928:	910003fd 	mov	x29, sp
 92c:	f90017e0 	str	x0, [sp, #40]
 930:	f90013e1 	str	x1, [sp, #32]
 934:	b9001fe2 	str	w2, [sp, #28]
 938:	39006fe3 	strb	w3, [sp, #27]
 93c:	f9000be4 	str	x4, [sp, #16]
 940:	39406fe0 	ldrb	w0, [sp, #27]
 944:	7100001f 	cmp	w0, #0x0
 948:	54000060 	b.eq	954 <putchw+0x30>  // b.none
 94c:	52800600 	mov	w0, #0x30                  	// #48
 950:	14000002 	b	958 <putchw+0x34>
 954:	52800400 	mov	w0, #0x20                  	// #32
 958:	3900dfe0 	strb	w0, [sp, #55]
 95c:	f9400be0 	ldr	x0, [sp, #16]
 960:	f9001fe0 	str	x0, [sp, #56]
 964:	14000004 	b	974 <putchw+0x50>
 968:	b9401fe0 	ldr	w0, [sp, #28]
 96c:	51000400 	sub	w0, w0, #0x1
 970:	b9001fe0 	str	w0, [sp, #28]
 974:	f9401fe0 	ldr	x0, [sp, #56]
 978:	91000401 	add	x1, x0, #0x1
 97c:	f9001fe1 	str	x1, [sp, #56]
 980:	39400000 	ldrb	w0, [x0]
 984:	7100001f 	cmp	w0, #0x0
 988:	54000120 	b.eq	9ac <putchw+0x88>  // b.none
 98c:	b9401fe0 	ldr	w0, [sp, #28]
 990:	7100001f 	cmp	w0, #0x0
 994:	54fffeac 	b.gt	968 <putchw+0x44>
 998:	14000005 	b	9ac <putchw+0x88>
 99c:	f94013e2 	ldr	x2, [sp, #32]
 9a0:	3940dfe1 	ldrb	w1, [sp, #55]
 9a4:	f94017e0 	ldr	x0, [sp, #40]
 9a8:	d63f0040 	blr	x2
 9ac:	b9401fe0 	ldr	w0, [sp, #28]
 9b0:	51000401 	sub	w1, w0, #0x1
 9b4:	b9001fe1 	str	w1, [sp, #28]
 9b8:	7100001f 	cmp	w0, #0x0
 9bc:	54ffff0c 	b.gt	99c <putchw+0x78>
 9c0:	14000005 	b	9d4 <putchw+0xb0>
 9c4:	f94013e2 	ldr	x2, [sp, #32]
 9c8:	3940dbe1 	ldrb	w1, [sp, #54]
 9cc:	f94017e0 	ldr	x0, [sp, #40]
 9d0:	d63f0040 	blr	x2
 9d4:	f9400be0 	ldr	x0, [sp, #16]
 9d8:	91000401 	add	x1, x0, #0x1
 9dc:	f9000be1 	str	x1, [sp, #16]
 9e0:	39400000 	ldrb	w0, [x0]
 9e4:	3900dbe0 	strb	w0, [sp, #54]
 9e8:	3940dbe0 	ldrb	w0, [sp, #54]
 9ec:	7100001f 	cmp	w0, #0x0
 9f0:	54fffea1 	b.ne	9c4 <putchw+0xa0>  // b.any
 9f4:	d503201f 	nop
 9f8:	d503201f 	nop
 9fc:	a8c47bfd 	ldp	x29, x30, [sp], #64
 a00:	d65f03c0 	ret

0000000000000a04 <tfp_format>:
 a04:	a9ba7bfd 	stp	x29, x30, [sp, #-96]!
 a08:	910003fd 	mov	x29, sp
 a0c:	f9000bf3 	str	x19, [sp, #16]
 a10:	f9001fe0 	str	x0, [sp, #56]
 a14:	f9001be1 	str	x1, [sp, #48]
 a18:	f90017e2 	str	x2, [sp, #40]
 a1c:	aa0303f3 	mov	x19, x3
 a20:	140000ef 	b	ddc <tfp_format+0x3d8>
 a24:	39417fe0 	ldrb	w0, [sp, #95]
 a28:	7100941f 	cmp	w0, #0x25
 a2c:	540000c0 	b.eq	a44 <tfp_format+0x40>  // b.none
 a30:	f9401be2 	ldr	x2, [sp, #48]
 a34:	39417fe1 	ldrb	w1, [sp, #95]
 a38:	f9401fe0 	ldr	x0, [sp, #56]
 a3c:	d63f0040 	blr	x2
 a40:	140000e7 	b	ddc <tfp_format+0x3d8>
 a44:	39017bff 	strb	wzr, [sp, #94]
 a48:	b9004fff 	str	wzr, [sp, #76]
 a4c:	f94017e0 	ldr	x0, [sp, #40]
 a50:	91000401 	add	x1, x0, #0x1
 a54:	f90017e1 	str	x1, [sp, #40]
 a58:	39400000 	ldrb	w0, [x0]
 a5c:	39017fe0 	strb	w0, [sp, #95]
 a60:	39417fe0 	ldrb	w0, [sp, #95]
 a64:	7100c01f 	cmp	w0, #0x30
 a68:	54000101 	b.ne	a88 <tfp_format+0x84>  // b.any
 a6c:	f94017e0 	ldr	x0, [sp, #40]
 a70:	91000401 	add	x1, x0, #0x1
 a74:	f90017e1 	str	x1, [sp, #40]
 a78:	39400000 	ldrb	w0, [x0]
 a7c:	39017fe0 	strb	w0, [sp, #95]
 a80:	52800020 	mov	w0, #0x1                   	// #1
 a84:	39017be0 	strb	w0, [sp, #94]
 a88:	39417fe0 	ldrb	w0, [sp, #95]
 a8c:	7100bc1f 	cmp	w0, #0x2f
 a90:	54000189 	b.ls	ac0 <tfp_format+0xbc>  // b.plast
 a94:	39417fe0 	ldrb	w0, [sp, #95]
 a98:	7100e41f 	cmp	w0, #0x39
 a9c:	54000128 	b.hi	ac0 <tfp_format+0xbc>  // b.pmore
 aa0:	910133e1 	add	x1, sp, #0x4c
 aa4:	9100a3e0 	add	x0, sp, #0x28
 aa8:	aa0103e3 	mov	x3, x1
 aac:	52800142 	mov	w2, #0xa                   	// #10
 ab0:	aa0003e1 	mov	x1, x0
 ab4:	39417fe0 	ldrb	w0, [sp, #95]
 ab8:	97ffff70 	bl	878 <a2i>
 abc:	39017fe0 	strb	w0, [sp, #95]
 ac0:	39417fe0 	ldrb	w0, [sp, #95]
 ac4:	7101e01f 	cmp	w0, #0x78
 ac8:	54000be0 	b.eq	c44 <tfp_format+0x240>  // b.none
 acc:	7101e01f 	cmp	w0, #0x78
 ad0:	5400184c 	b.gt	dd8 <tfp_format+0x3d4>
 ad4:	7101d41f 	cmp	w0, #0x75
 ad8:	54000300 	b.eq	b38 <tfp_format+0x134>  // b.none
 adc:	7101d41f 	cmp	w0, #0x75
 ae0:	540017cc 	b.gt	dd8 <tfp_format+0x3d4>
 ae4:	7101cc1f 	cmp	w0, #0x73
 ae8:	54001360 	b.eq	d54 <tfp_format+0x350>  // b.none
 aec:	7101cc1f 	cmp	w0, #0x73
 af0:	5400174c 	b.gt	dd8 <tfp_format+0x3d4>
 af4:	7101901f 	cmp	w0, #0x64
 af8:	54000660 	b.eq	bc4 <tfp_format+0x1c0>  // b.none
 afc:	7101901f 	cmp	w0, #0x64
 b00:	540016cc 	b.gt	dd8 <tfp_format+0x3d4>
 b04:	71018c1f 	cmp	w0, #0x63
 b08:	54000f00 	b.eq	ce8 <tfp_format+0x2e4>  // b.none
 b0c:	71018c1f 	cmp	w0, #0x63
 b10:	5400164c 	b.gt	dd8 <tfp_format+0x3d4>
 b14:	7101601f 	cmp	w0, #0x58
 b18:	54000960 	b.eq	c44 <tfp_format+0x240>  // b.none
 b1c:	7101601f 	cmp	w0, #0x58
 b20:	540015cc 	b.gt	dd8 <tfp_format+0x3d4>
 b24:	7100001f 	cmp	w0, #0x0
 b28:	540016c0 	b.eq	e00 <tfp_format+0x3fc>  // b.none
 b2c:	7100941f 	cmp	w0, #0x25
 b30:	540014c0 	b.eq	dc8 <tfp_format+0x3c4>  // b.none
 b34:	140000a9 	b	dd8 <tfp_format+0x3d4>
 b38:	b9401a61 	ldr	w1, [x19, #24]
 b3c:	f9400260 	ldr	x0, [x19]
 b40:	7100003f 	cmp	w1, #0x0
 b44:	540000ab 	b.lt	b58 <tfp_format+0x154>  // b.tstop
 b48:	91002c01 	add	x1, x0, #0xb
 b4c:	927df021 	and	x1, x1, #0xfffffffffffffff8
 b50:	f9000261 	str	x1, [x19]
 b54:	1400000d 	b	b88 <tfp_format+0x184>
 b58:	11002022 	add	w2, w1, #0x8
 b5c:	b9001a62 	str	w2, [x19, #24]
 b60:	b9401a62 	ldr	w2, [x19, #24]
 b64:	7100005f 	cmp	w2, #0x0
 b68:	540000ad 	b.le	b7c <tfp_format+0x178>
 b6c:	91002c01 	add	x1, x0, #0xb
 b70:	927df021 	and	x1, x1, #0xfffffffffffffff8
 b74:	f9000261 	str	x1, [x19]
 b78:	14000004 	b	b88 <tfp_format+0x184>
 b7c:	f9400662 	ldr	x2, [x19, #8]
 b80:	93407c20 	sxtw	x0, w1
 b84:	8b000040 	add	x0, x2, x0
 b88:	b9400000 	ldr	w0, [x0]
 b8c:	910143e1 	add	x1, sp, #0x50
 b90:	aa0103e3 	mov	x3, x1
 b94:	52800002 	mov	w2, #0x0                   	// #0
 b98:	52800141 	mov	w1, #0xa                   	// #10
 b9c:	97fffeb6 	bl	674 <ui2a>
 ba0:	b9404fe0 	ldr	w0, [sp, #76]
 ba4:	910143e1 	add	x1, sp, #0x50
 ba8:	aa0103e4 	mov	x4, x1
 bac:	39417be3 	ldrb	w3, [sp, #94]
 bb0:	2a0003e2 	mov	w2, w0
 bb4:	f9401be1 	ldr	x1, [sp, #48]
 bb8:	f9401fe0 	ldr	x0, [sp, #56]
 bbc:	97ffff5a 	bl	924 <putchw>
 bc0:	14000087 	b	ddc <tfp_format+0x3d8>
 bc4:	b9401a61 	ldr	w1, [x19, #24]
 bc8:	f9400260 	ldr	x0, [x19]
 bcc:	7100003f 	cmp	w1, #0x0
 bd0:	540000ab 	b.lt	be4 <tfp_format+0x1e0>  // b.tstop
 bd4:	91002c01 	add	x1, x0, #0xb
 bd8:	927df021 	and	x1, x1, #0xfffffffffffffff8
 bdc:	f9000261 	str	x1, [x19]
 be0:	1400000d 	b	c14 <tfp_format+0x210>
 be4:	11002022 	add	w2, w1, #0x8
 be8:	b9001a62 	str	w2, [x19, #24]
 bec:	b9401a62 	ldr	w2, [x19, #24]
 bf0:	7100005f 	cmp	w2, #0x0
 bf4:	540000ad 	b.le	c08 <tfp_format+0x204>
 bf8:	91002c01 	add	x1, x0, #0xb
 bfc:	927df021 	and	x1, x1, #0xfffffffffffffff8
 c00:	f9000261 	str	x1, [x19]
 c04:	14000004 	b	c14 <tfp_format+0x210>
 c08:	f9400662 	ldr	x2, [x19, #8]
 c0c:	93407c20 	sxtw	x0, w1
 c10:	8b000040 	add	x0, x2, x0
 c14:	b9400000 	ldr	w0, [x0]
 c18:	910143e1 	add	x1, sp, #0x50
 c1c:	97fffee0 	bl	79c <i2a>
 c20:	b9404fe0 	ldr	w0, [sp, #76]
 c24:	910143e1 	add	x1, sp, #0x50
 c28:	aa0103e4 	mov	x4, x1
 c2c:	39417be3 	ldrb	w3, [sp, #94]
 c30:	2a0003e2 	mov	w2, w0
 c34:	f9401be1 	ldr	x1, [sp, #48]
 c38:	f9401fe0 	ldr	x0, [sp, #56]
 c3c:	97ffff3a 	bl	924 <putchw>
 c40:	14000067 	b	ddc <tfp_format+0x3d8>
 c44:	b9401a61 	ldr	w1, [x19, #24]
 c48:	f9400260 	ldr	x0, [x19]
 c4c:	7100003f 	cmp	w1, #0x0
 c50:	540000ab 	b.lt	c64 <tfp_format+0x260>  // b.tstop
 c54:	91002c01 	add	x1, x0, #0xb
 c58:	927df021 	and	x1, x1, #0xfffffffffffffff8
 c5c:	f9000261 	str	x1, [x19]
 c60:	1400000d 	b	c94 <tfp_format+0x290>
 c64:	11002022 	add	w2, w1, #0x8
 c68:	b9001a62 	str	w2, [x19, #24]
 c6c:	b9401a62 	ldr	w2, [x19, #24]
 c70:	7100005f 	cmp	w2, #0x0
 c74:	540000ad 	b.le	c88 <tfp_format+0x284>
 c78:	91002c01 	add	x1, x0, #0xb
 c7c:	927df021 	and	x1, x1, #0xfffffffffffffff8
 c80:	f9000261 	str	x1, [x19]
 c84:	14000004 	b	c94 <tfp_format+0x290>
 c88:	f9400662 	ldr	x2, [x19, #8]
 c8c:	93407c20 	sxtw	x0, w1
 c90:	8b000040 	add	x0, x2, x0
 c94:	b9400004 	ldr	w4, [x0]
 c98:	39417fe0 	ldrb	w0, [sp, #95]
 c9c:	7101601f 	cmp	w0, #0x58
 ca0:	1a9f17e0 	cset	w0, eq	// eq = none
 ca4:	12001c00 	and	w0, w0, #0xff
 ca8:	2a0003e1 	mov	w1, w0
 cac:	910143e0 	add	x0, sp, #0x50
 cb0:	aa0003e3 	mov	x3, x0
 cb4:	2a0103e2 	mov	w2, w1
 cb8:	52800201 	mov	w1, #0x10                  	// #16
 cbc:	2a0403e0 	mov	w0, w4
 cc0:	97fffe6d 	bl	674 <ui2a>
 cc4:	b9404fe0 	ldr	w0, [sp, #76]
 cc8:	910143e1 	add	x1, sp, #0x50
 ccc:	aa0103e4 	mov	x4, x1
 cd0:	39417be3 	ldrb	w3, [sp, #94]
 cd4:	2a0003e2 	mov	w2, w0
 cd8:	f9401be1 	ldr	x1, [sp, #48]
 cdc:	f9401fe0 	ldr	x0, [sp, #56]
 ce0:	97ffff11 	bl	924 <putchw>
 ce4:	1400003e 	b	ddc <tfp_format+0x3d8>
 ce8:	b9401a61 	ldr	w1, [x19, #24]
 cec:	f9400260 	ldr	x0, [x19]
 cf0:	7100003f 	cmp	w1, #0x0
 cf4:	540000ab 	b.lt	d08 <tfp_format+0x304>  // b.tstop
 cf8:	91002c01 	add	x1, x0, #0xb
 cfc:	927df021 	and	x1, x1, #0xfffffffffffffff8
 d00:	f9000261 	str	x1, [x19]
 d04:	1400000d 	b	d38 <tfp_format+0x334>
 d08:	11002022 	add	w2, w1, #0x8
 d0c:	b9001a62 	str	w2, [x19, #24]
 d10:	b9401a62 	ldr	w2, [x19, #24]
 d14:	7100005f 	cmp	w2, #0x0
 d18:	540000ad 	b.le	d2c <tfp_format+0x328>
 d1c:	91002c01 	add	x1, x0, #0xb
 d20:	927df021 	and	x1, x1, #0xfffffffffffffff8
 d24:	f9000261 	str	x1, [x19]
 d28:	14000004 	b	d38 <tfp_format+0x334>
 d2c:	f9400662 	ldr	x2, [x19, #8]
 d30:	93407c20 	sxtw	x0, w1
 d34:	8b000040 	add	x0, x2, x0
 d38:	b9400000 	ldr	w0, [x0]
 d3c:	12001c00 	and	w0, w0, #0xff
 d40:	f9401be2 	ldr	x2, [sp, #48]
 d44:	2a0003e1 	mov	w1, w0
 d48:	f9401fe0 	ldr	x0, [sp, #56]
 d4c:	d63f0040 	blr	x2
 d50:	14000023 	b	ddc <tfp_format+0x3d8>
 d54:	b9404fe5 	ldr	w5, [sp, #76]
 d58:	b9401a61 	ldr	w1, [x19, #24]
 d5c:	f9400260 	ldr	x0, [x19]
 d60:	7100003f 	cmp	w1, #0x0
 d64:	540000ab 	b.lt	d78 <tfp_format+0x374>  // b.tstop
 d68:	91003c01 	add	x1, x0, #0xf
 d6c:	927df021 	and	x1, x1, #0xfffffffffffffff8
 d70:	f9000261 	str	x1, [x19]
 d74:	1400000d 	b	da8 <tfp_format+0x3a4>
 d78:	11002022 	add	w2, w1, #0x8
 d7c:	b9001a62 	str	w2, [x19, #24]
 d80:	b9401a62 	ldr	w2, [x19, #24]
 d84:	7100005f 	cmp	w2, #0x0
 d88:	540000ad 	b.le	d9c <tfp_format+0x398>
 d8c:	91003c01 	add	x1, x0, #0xf
 d90:	927df021 	and	x1, x1, #0xfffffffffffffff8
 d94:	f9000261 	str	x1, [x19]
 d98:	14000004 	b	da8 <tfp_format+0x3a4>
 d9c:	f9400662 	ldr	x2, [x19, #8]
 da0:	93407c20 	sxtw	x0, w1
 da4:	8b000040 	add	x0, x2, x0
 da8:	f9400000 	ldr	x0, [x0]
 dac:	aa0003e4 	mov	x4, x0
 db0:	52800003 	mov	w3, #0x0                   	// #0
 db4:	2a0503e2 	mov	w2, w5
 db8:	f9401be1 	ldr	x1, [sp, #48]
 dbc:	f9401fe0 	ldr	x0, [sp, #56]
 dc0:	97fffed9 	bl	924 <putchw>
 dc4:	14000006 	b	ddc <tfp_format+0x3d8>
 dc8:	f9401be2 	ldr	x2, [sp, #48]
 dcc:	39417fe1 	ldrb	w1, [sp, #95]
 dd0:	f9401fe0 	ldr	x0, [sp, #56]
 dd4:	d63f0040 	blr	x2
 dd8:	d503201f 	nop
 ddc:	f94017e0 	ldr	x0, [sp, #40]
 de0:	91000401 	add	x1, x0, #0x1
 de4:	f90017e1 	str	x1, [sp, #40]
 de8:	39400000 	ldrb	w0, [x0]
 dec:	39017fe0 	strb	w0, [sp, #95]
 df0:	39417fe0 	ldrb	w0, [sp, #95]
 df4:	7100001f 	cmp	w0, #0x0
 df8:	54ffe161 	b.ne	a24 <tfp_format+0x20>  // b.any
 dfc:	14000002 	b	e04 <tfp_format+0x400>
 e00:	d503201f 	nop
 e04:	d503201f 	nop
 e08:	f9400bf3 	ldr	x19, [sp, #16]
 e0c:	a8c67bfd 	ldp	x29, x30, [sp], #96
 e10:	d65f03c0 	ret

0000000000000e14 <init_printf>:
 e14:	d10043ff 	sub	sp, sp, #0x10
 e18:	f90007e0 	str	x0, [sp, #8]
 e1c:	f90003e1 	str	x1, [sp]
 e20:	b0000000 	adrp	x0, 1000 <get_el+0x18>
 e24:	910d0000 	add	x0, x0, #0x340
 e28:	f94003e1 	ldr	x1, [sp]
 e2c:	f9000001 	str	x1, [x0]
 e30:	b0000000 	adrp	x0, 1000 <get_el+0x18>
 e34:	910d2000 	add	x0, x0, #0x348
 e38:	f94007e1 	ldr	x1, [sp, #8]
 e3c:	f9000001 	str	x1, [x0]
 e40:	d503201f 	nop
 e44:	910043ff 	add	sp, sp, #0x10
 e48:	d65f03c0 	ret

0000000000000e4c <tfp_printf>:
 e4c:	a9b67bfd 	stp	x29, x30, [sp, #-160]!
 e50:	910003fd 	mov	x29, sp
 e54:	f9001fe0 	str	x0, [sp, #56]
 e58:	f90037e1 	str	x1, [sp, #104]
 e5c:	f9003be2 	str	x2, [sp, #112]
 e60:	f9003fe3 	str	x3, [sp, #120]
 e64:	f90043e4 	str	x4, [sp, #128]
 e68:	f90047e5 	str	x5, [sp, #136]
 e6c:	f9004be6 	str	x6, [sp, #144]
 e70:	f9004fe7 	str	x7, [sp, #152]
 e74:	910283e0 	add	x0, sp, #0xa0
 e78:	f90023e0 	str	x0, [sp, #64]
 e7c:	910283e0 	add	x0, sp, #0xa0
 e80:	f90027e0 	str	x0, [sp, #72]
 e84:	910183e0 	add	x0, sp, #0x60
 e88:	f9002be0 	str	x0, [sp, #80]
 e8c:	128006e0 	mov	w0, #0xffffffc8            	// #-56
 e90:	b9005be0 	str	w0, [sp, #88]
 e94:	b9005fff 	str	wzr, [sp, #92]
 e98:	b0000000 	adrp	x0, 1000 <get_el+0x18>
 e9c:	910d2000 	add	x0, x0, #0x348
 ea0:	f9400006 	ldr	x6, [x0]
 ea4:	b0000000 	adrp	x0, 1000 <get_el+0x18>
 ea8:	910d0000 	add	x0, x0, #0x340
 eac:	f9400007 	ldr	x7, [x0]
 eb0:	910043e0 	add	x0, sp, #0x10
 eb4:	910103e1 	add	x1, sp, #0x40
 eb8:	a9401424 	ldp	x4, x5, [x1]
 ebc:	a9410c22 	ldp	x2, x3, [x1, #16]
 ec0:	a9001404 	stp	x4, x5, [x0]
 ec4:	a9010c02 	stp	x2, x3, [x0, #16]
 ec8:	910043e0 	add	x0, sp, #0x10
 ecc:	aa0003e3 	mov	x3, x0
 ed0:	f9401fe2 	ldr	x2, [sp, #56]
 ed4:	aa0703e1 	mov	x1, x7
 ed8:	aa0603e0 	mov	x0, x6
 edc:	97fffeca 	bl	a04 <tfp_format>
 ee0:	d503201f 	nop
 ee4:	a8ca7bfd 	ldp	x29, x30, [sp], #160
 ee8:	d65f03c0 	ret

0000000000000eec <putcp>:
 eec:	d10043ff 	sub	sp, sp, #0x10
 ef0:	f90007e0 	str	x0, [sp, #8]
 ef4:	39001fe1 	strb	w1, [sp, #7]
 ef8:	f94007e0 	ldr	x0, [sp, #8]
 efc:	f9400000 	ldr	x0, [x0]
 f00:	91000402 	add	x2, x0, #0x1
 f04:	f94007e1 	ldr	x1, [sp, #8]
 f08:	f9000022 	str	x2, [x1]
 f0c:	39401fe1 	ldrb	w1, [sp, #7]
 f10:	39000001 	strb	w1, [x0]
 f14:	d503201f 	nop
 f18:	910043ff 	add	sp, sp, #0x10
 f1c:	d65f03c0 	ret

0000000000000f20 <tfp_sprintf>:
 f20:	a9b77bfd 	stp	x29, x30, [sp, #-144]!
 f24:	910003fd 	mov	x29, sp
 f28:	f9001fe0 	str	x0, [sp, #56]
 f2c:	f9001be1 	str	x1, [sp, #48]
 f30:	f90033e2 	str	x2, [sp, #96]
 f34:	f90037e3 	str	x3, [sp, #104]
 f38:	f9003be4 	str	x4, [sp, #112]
 f3c:	f9003fe5 	str	x5, [sp, #120]
 f40:	f90043e6 	str	x6, [sp, #128]
 f44:	f90047e7 	str	x7, [sp, #136]
 f48:	910243e0 	add	x0, sp, #0x90
 f4c:	f90023e0 	str	x0, [sp, #64]
 f50:	910243e0 	add	x0, sp, #0x90
 f54:	f90027e0 	str	x0, [sp, #72]
 f58:	910183e0 	add	x0, sp, #0x60
 f5c:	f9002be0 	str	x0, [sp, #80]
 f60:	128005e0 	mov	w0, #0xffffffd0            	// #-48
 f64:	b9005be0 	str	w0, [sp, #88]
 f68:	b9005fff 	str	wzr, [sp, #92]
 f6c:	910043e0 	add	x0, sp, #0x10
 f70:	910103e1 	add	x1, sp, #0x40
 f74:	a9401424 	ldp	x4, x5, [x1]
 f78:	a9410c22 	ldp	x2, x3, [x1, #16]
 f7c:	a9001404 	stp	x4, x5, [x0]
 f80:	a9010c02 	stp	x2, x3, [x0, #16]
 f84:	910043e0 	add	x0, sp, #0x10
 f88:	9100e3e4 	add	x4, sp, #0x38
 f8c:	aa0003e3 	mov	x3, x0
 f90:	f9401be2 	ldr	x2, [sp, #48]
 f94:	90000000 	adrp	x0, 0 <_start>
 f98:	913bb001 	add	x1, x0, #0xeec
 f9c:	aa0403e0 	mov	x0, x4
 fa0:	97fffe99 	bl	a04 <tfp_format>
 fa4:	9100e3e0 	add	x0, sp, #0x38
 fa8:	52800001 	mov	w1, #0x0                   	// #0
 fac:	97ffffd0 	bl	eec <putcp>
 fb0:	d503201f 	nop
 fb4:	a8c97bfd 	ldp	x29, x30, [sp], #144
 fb8:	d65f03c0 	ret

0000000000000fbc <memzero>:
 fbc:	f800841f 	str	xzr, [x0], #8
 fc0:	f1002021 	subs	x1, x1, #0x8
 fc4:	54ffffcc 	b.gt	fbc <memzero>
 fc8:	d65f03c0 	ret

0000000000000fcc <delay>:
 fcc:	f1000400 	subs	x0, x0, #0x1
 fd0:	54ffffe1 	b.ne	fcc <delay>  // b.any
 fd4:	d65f03c0 	ret

0000000000000fd8 <put32>:
 fd8:	b9000001 	str	w1, [x0]
 fdc:	d65f03c0 	ret

0000000000000fe0 <get32>:
 fe0:	b9400000 	ldr	w0, [x0]
 fe4:	d65f03c0 	ret

0000000000000fe8 <get_el>:
 fe8:	d5384240 	mrs	x0, currentel
 fec:	d342fc00 	lsr	x0, x0, #2
 ff0:	d65f03c0 	ret
